((dp0
S'game-icf'
p1
S''
p2
sS'dist'
p3
NsS'csproj'
p4
g2
sS'module_path_append'
p5
NsS'global_path'
p6
S'c:\\users\\david\\git\\radioapp\\uccsradio'
p7
sS'system_path'
p8
S'c:\\marmalade\\7.3\\s3e\\makefile_builder'
p9
sS'no-emit'
p10
NsS'arm-float-abi'
p11
g2
sS'amd64'
p12
NsS'line-width'
p13
I80
sS'android-x86'
p14
NsS'disable-runtime-checks'
p15
NsS'release'
p16
NsS'no-make'
p17
NsS'optimise-size'
p18
NsS'output-name-debug'
p19
S'lib/win32/streamerExtension_d.dll'
p20
sS'arm-fpu'
p21
g2
sS'rvct-version'
p22
S'none'
p23
sS'compiler'
p24
g2
sS'execute'
p25
NsS'compile-static'
p26
NsS'msvc-project'
p27
I01
sS'buildenv'
p28
g2
sS'quick'
p29
NsS'module_path'
p30
NsS'use-release-std-libs'
p31
NsS'using_perforce'
p32
I00
sS'tizen-x86'
p33
NsS'mips-s3e'
p34
NsS's3e-api-lib-name'
p35
g2
sS'ios-no-pic'
p36
NsS'shared-arm-lib'
p37
NsS'arm-cpu'
p38
g2
sS'compile-thumb'
p39
NsS'no-ide'
p40
NsS'msvc-version'
p41
S'6.0'
p42
sS'arm'
p43
NsS'builddir'
p44
g2
sS'compile-debug-as-release'
p45
I0
sS'arm-arch'
p46
g2
sS'brief'
p47
NsS'dll'
p48
I1
sS'buildenv-toolset'
p49
g2
sS'version'
p50
NsS'ccache'
p51
I0
sS'offline'
p52
NsS'ios-version'
p53
g2
sS'hub_data'
p54
g2
sS'fake_vc_call'
p55
NsS'jobs'
p56
I0
sS'linkflags'
p57
NsS'debug'
p58
NsS'xcode-build-order'
p59
g2
sS'done_defaults'
p60
I1
sS'path'
p61
NsS's3e-data-dir'
p62
g2
sS'enable-exceptions'
p63
NsS'osx-dll'
p64
NsS'extension'
p65
g2
sS'no-vc6'
p66
NsS'non-interactive'
p67
NsS'win32-console'
p68
NsS'dist-format'
p69
g2
sS's3e-force-arch'
p70
NsS'dump_defines'
p71
NsS'use_prebuilt'
p72
NsS'gcc-version'
p73
g2
sS'arm-debugger'
p74
g2
sS'use_temp_extension'
p75
NsS'verbose'
p76
I0
sS'log'
p77
NsS'no-strip'
p78
NsS'rebuild'
p79
NsS'win32-simulator-dll'
p80
NsS'strict'
p81
NsS'enable-global-path'
p82
NsS'cflags'
p83
NsS'dist-dir'
p84
g2
sS'jflags'
p85
NsS'csprojSDKRefs'
p86
g2
sS'test-assets'
p87
g2
sS'distcc'
p88
NsS'external-compiler'
p89
NsS'no-distcc'
p90
NsS'preinclude'
p91
NsS'using_sdk'
p92
I01
sS'nologo'
p93
NsS'warn-level'
p94
I2
sS'mkb_in'
p95
S'c:/Users/David/git/RadioApp/UCCSRadio/streamerExtension/streamerExtension_windows.mkb'
p96
sS'csprojDLLRef'
p97
NsS'test-config'
p98
g2
sS'list-targets'
p99
NsS'makedeps'
p100
NsS'default-buildenv'
p101
S'vc12x'
p102
sS'preprocess-java'
p103
NsS'defines'
p104
NsS'lib'
p105
NsS'global_argv'
p106
(lp107
S'C:\\Marmalade\\7.3\\s3e\\makefile_builder\\mkb.py'
p108
aS'c:/Users/David/git/RadioApp/UCCSRadio/streamerExtension/streamerExtension_windows.mkb'
p109
aS'--default-buildenv=vc12x'
p110
aS'--msvc-project'
p111
asS'make'
p112
NsS'optimise-speed'
p113
NsS'internal'
p114
NsS'enable-stdinc'
p115
NsS'deploy-only'
p116
NsS'x86'
p117
I1
sS'deploy'
p118
g2
sS'mips'
p119
NsS'xcode-build-settings'
p120
g2
sS'incredibuild'
p121
NsS'strict-compile'
p122
NsS'use-auto-subdirs'
p123
NsS'app-icf'
p124
g2
sS'deployargs'
p125
NsS'iosnativedebug'
p126
NsS'mkf_in'
p127
(lp128
S'c:\\users\\david\\git\\radioapp\\uccsradio\\streamerextension\\streamerextension_build.mkf'
p129
aS'c:\\marmalade\\7.3\\s3e\\edk\\edk.mkf'
p130
asS'strict-mkb'
p131
NsS'executeargs'
p132
NsS'clean'
p133
NsS'no-asm'
p134
NsS'output-name'
p135
S'lib/win32/streamerExtension.dll'
p136
sS'no-modules'
p137
NsS'find_define'
p138
g2
s(dp139
S'c:\\marmalade\\7.3\\s3e\\makefile_builder\\templates\\xcode_pbxuser.py'
p140
F1401412654.0
sS'c:\\marmalade\\7.3\\s3e\\makefile_builder\\plugins\\s3e_xcode.pyc'
p141
F1401919058.6926901
sS'c:\\marmalade\\7.3\\s3e\\makefile_builder\\plugins\\osx_scons.pyc'
p142
F1401413938.0
sS'c:\\marmalade\\7.3\\s3e\\makefile_builder\\extensions'
p143
F1401918992.7587917
sS'c:\\marmalade\\7.3\\s3e\\makefile_builder\\templates\\win8_sln.pyc'
p144
F1401413938.0
sS'c:\\marmalade\\7.3\\s3e\\makefile_builder\\plugins\\s3e_wp8.pyc'
p145
F1401413938.0
sS'c:\\marmalade\\7.3\\s3e\\makefile_builder\\mkb_launcher.exe'
p146
F1401413054.0
sS'c:\\marmalade\\7.3\\s3e\\makefile_builder\\plugins\\null.pyc'
p147
F1401413936.0
sS'c:\\marmalade\\7.3\\s3e\\makefile_builder\\plugins\\s3e_web.pyc'
p148
F1401413936.0
sS'c:\\marmalade\\7.3\\s3e\\makefile_builder\\plugins\\SConsEmitter.pyc'
p149
F1401413936.0
sS'c:\\marmalade\\7.3\\s3e\\makefile_builder\\mkb_util.pyc'
p150
F1401413936.0
sS'c:\\marmalade\\7.3\\s3e\\makefile_builder\\templates\\ws8_csproj_user.pyc'
p151
F1401413938.0
sS'c:\\marmalade\\7.3\\s3e\\makefile_builder\\mkb_upstream.pyc'
p152
F1401413936.0
sS'c:\\marmalade\\7.3\\s3e\\makefile_builder\\templates\\win8_csproj.pyc'
p153
F1401413938.0
sS'c:\\marmalade\\7.3\\s3e\\makefile_builder\\docs\\deprecated.options.txt'
p154
F1401412654.0
sS'c:\\marmalade\\7.3\\s3e\\makefile_builder\\templates\\wp8_csproj_user.pyc'
p155
F1401413938.0
sS'c:\\marmalade\\7.3\\s3e\\makefile_builder\\extensions\\make_dist.py'
p156
F1401412654.0
sS'c:\\marmalade\\7.3\\s3e\\makefile_builder\\docs\\deprecated.defines.txt'
p157
F1401412654.0
sS'c:\\marmalade\\7.3\\s3e\\makefile_builder\\templates\\wp8_csproj.pyc'
p158
F1401413938.0
sS'c:\\marmalade\\7.3\\s3e\\makefile_builder\\templates\\vc8_user.pyc'
p159
F1401413938.0
sS'c:\\marmalade\\7.3\\s3e\\makefile_builder\\plugins\\wp8_wp8.pyc'
p160
F1401413938.0
sS'c:\\marmalade\\7.3\\s3e\\makefile_builder\\deployment.pyc'
p161
F1401413936.0
sS'c:\\marmalade\\7.3\\s3e\\makefile_builder\\docs\\mkb.defines.txt'
p162
F1401412654.0
sS'c:\\marmalade\\7.3\\s3e\\makefile_builder\\plugins'
p163
F1401919058.6906724
sS'c:\\marmalade\\7.3\\s3e\\makefile_builder\\templates\\wp8_sln.pyc'
p164
F1401413938.0
sS'c:\\marmalade\\7.3\\s3e\\makefile_builder\\templates\\rvct_linker_script'
p165
F1401412654.0
sS'c:\\marmalade\\7.3\\s3e\\makefile_builder\\mkb_main.pyc'
p166
F1401413936.0
sS'c:\\marmalade\\7.3\\s3e\\makefile_builder\\templates\\win32_vcxproj_filters.pyc'
p167
F1401413938.0
sS'c:\\marmalade\\7.3\\s3e\\makefile_builder\\templates\\xcode4_DeployTool.xcscheme'
p168
F1401412654.0
sS'c:\\marmalade\\7.3\\s3e\\makefile_builder\\plugins\\s3e_ws81.pyc'
p169
F1401413938.0
sS'c:\\marmalade\\7.3\\s3e\\makefile_builder\\templates\\scons.pyc'
p170
F1401413938.0
sS'c:\\marmalade\\7.3\\s3e\\makefile_builder\\templates\\ws8_csproj.pyc'
p171
F1401413938.0
sS'c:\\marmalade\\7.3\\s3e\\makefile_builder\\templates'
p172
F1401918992.7507856
sS'c:\\marmalade\\7.3\\s3e\\makefile_builder\\plugins\\s3e_scons.pyc'
p173
F1401413936.0
sS'c:\\marmalade\\7.3\\s3e\\makefile_builder\\plugins\\XcodeEmitter.py'
p174
F1401412654.0
sS'c:\\marmalade\\7.3\\s3e\\makefile_builder\\templates\\win32_dsp.pyc'
p175
F1401413938.0
sS'c:\\marmalade\\7.3\\s3e\\makefile_builder\\plugins\\s3e_qmake.py'
p176
F1401412654.0
sS'c:\\marmalade\\7.3\\s3e\\makefile_builder\\mkb.py'
p177
F1401412654.0
sS'c:\\marmalade\\7.3\\s3e\\makefile_builder\\templates\\win32_sln.pyc'
p178
F1401413938.0
sS'c:\\marmalade\\7.3\\s3e\\makefile_builder\\plugins\\linux_scons.pyc'
p179
F1401413938.0
sS'c:\\marmalade\\7.3\\s3e\\makefile_builder\\templates\\ws81_ext_csproj.pyc'
p180
F1401413938.0
sS'c:\\marmalade\\7.3\\s3e\\makefile_builder\\templates\\win8_vcxproj.pyc'
p181
F1401413938.0
sS'c:\\marmalade\\7.3\\s3e\\makefile_builder\\templates\\win32_vcxproj.pyc'
p182
F1401413938.0
sS'c:\\marmalade\\7.3\\s3e\\makefile_builder\\templates\\vc7_suo.pyc'
p183
F1401413938.0
sS'c:\\marmalade\\7.3\\s3e\\makefile_builder\\templates\\make.py'
p184
F1401412654.0
sS'c:\\marmalade\\7.3\\s3e\\makefile_builder\\templates\\wp8_vcxproj.pyc'
p185
F1401413938.0
sS'c:\\marmalade\\7.3\\s3e\\makefile_builder\\plugins\\MakeEmitter.pyc'
p186
F1401413936.0
sS'c:\\marmalade\\7.3\\s3e\\makefile_builder\\plugins\\deploy.pyc'
p187
F1401413936.0
sS'c:\\marmalade\\7.3\\s3e\\makefile_builder\\plugins\\VisualStudioEmitter.pyc'
p188
F1401413936.0
sS'c:\\marmalade\\7.3\\s3e\\makefile_builder\\plugins\\ws81_ws81.pyc'
p189
F1401413938.0
sS'c:\\marmalade\\7.3\\s3e\\makefile_builder\\docs\\parse_options.pyc'
p190
F1401413938.0
sS'c:\\marmalade\\7.3\\s3e\\makefile_builder\\templates\\win32_dsw.pyc'
p191
F1401413938.0
sS'c:\\marmalade\\7.3\\s3e\\makefile_builder\\plugins\\s3e_make.pyc'
p192
F1401413936.0
sS'c:\\marmalade\\7.3\\s3e\\makefile_builder\\templates\\ws8_sln.pyc'
p193
F1401413938.0
sS'c:\\marmalade\\7.3\\s3e\\makefile_builder\\templates\\ws81_vcxproj.pyc'
p194
F1401413938.0
sS'c:\\marmalade\\7.3\\s3e\\makefile_builder\\templates\\win8_csproj_user.pyc'
p195
F1401413938.0
sS'c:\\marmalade\\7.3\\s3e\\makefile_builder\\templates\\ws81_ext_sln.pyc'
p196
F1401413938.0
sS'c:\\marmalade\\7.3\\s3e\\makefile_builder\\plugins\\XcodeEmitter.pyc'
p197
F1401919058.5175495
sS'c:\\marmalade\\7.3\\s3e\\makefile_builder\\templates\\mips_linker_script'
p198
F1401412654.0
sS'c:\\marmalade\\7.3\\s3e\\makefile_builder\\docs'
p199
F1401918992.7778051
sS'c:\\marmalade\\7.3\\s3e\\makefile_builder\\templates\\xcode4_arm.xcscheme'
p200
F1401412654.0
sS'c:\\marmalade\\7.3\\s3e\\makefile_builder\\templates\\ws81_csproj.pyc'
p201
F1401413938.0
sS'c:\\marmalade\\7.3\\s3e\\makefile_builder\\templates\\ws8_ext_sln.pyc'
p202
F1401413938.0
sS'c:\\marmalade\\7.3\\s3e\\makefile_builder\\plugins\\Emitter.pyc'
p203
F1401413936.0
sS'c:\\marmalade\\7.3\\s3e\\makefile_builder\\templates\\template.opt'
p204
F1401412654.0
sS'c:\\marmalade\\7.3\\s3e\\makefile_builder\\plugins\\vc6_utils.pyc'
p205
F1401413936.0
sS'c:\\marmalade\\7.3\\s3e\\makefile_builder\\templates\\linker_script'
p206
F1401412654.0
sS'c:\\marmalade\\7.3\\s3e\\makefile_builder\\templates\\xcode4.xcscheme'
p207
F1401412654.0
sS'c:\\marmalade\\7.3\\s3e\\makefile_builder\\plugins\\Win8Emitter.pyc'
p208
F1401413938.0
sS'c:\\marmalade\\7.3\\s3e\\makefile_builder\\templates\\Info.plist'
p209
F1401412654.0
sS'c:\\marmalade\\7.3\\s3e\\makefile_builder\\plugins\\s3e_xcode.py'
p210
F1401412654.0
sS'c:\\marmalade\\7.3\\s3e\\makefile_builder\\docs\\options.txt'
p211
F1401412654.0
sS'c:\\marmalade\\7.3\\s3e\\makefile_builder\\templates\\ws81_csproj_user.pyc'
p212
F1401413938.0
sS'c:\\marmalade\\7.3\\s3e\\makefile_builder\\templates\\qmake.py'
p213
F1401412654.0
sS'c:\\marmalade\\7.3\\s3e\\makefile_builder\\plugins\\win32_vc6.pyc'
p214
F1401413938.0
sS'c:\\marmalade\\7.3\\s3e\\makefile_builder\\plugins\\ws8_ws8.pyc'
p215
F1401413938.0
sS'c:\\marmalade\\7.3\\s3e\\makefile_builder\\plugins\\osx_xcode.pyc'
p216
F1401413938.0
sS'c:\\marmalade\\7.3\\s3e\\makefile_builder\\templates\\ws81_sln.pyc'
p217
F1401413938.0
sS'c:\\marmalade\\7.3\\s3e\\makefile_builder\\templates\\win32_vcproj.pyc'
p218
F1401413938.0
sS'c:\\marmalade\\7.3\\s3e\\makefile_builder\\plugins\\s3e_vc6.pyc'
p219
F1401413936.0
sS'c:\\marmalade\\7.3\\s3e\\makefile_builder\\mkb_option.pyc'
p220
F1401413936.0
sS'c:\\marmalade\\7.3\\s3e\\makefile_builder\\templates\\vc6_opt.pyc'
p221
F1401413938.0
sS'c:\\marmalade\\7.3\\s3e\\makefile_builder\\templates\\win8_ext_csproj.pyc'
p222
F1401413938.0
sS'c:\\marmalade\\7.3\\s3e\\makefile_builder\\plugins\\s3e_win8.pyc'
p223
F1401413938.0
sS'c:\\marmalade\\7.3\\s3e\\makefile_builder\\templates\\template.suo'
p224
F1401412654.0
sS'c:\\marmalade\\7.3\\s3e\\makefile_builder\\templates\\ws8_vcxproj.pyc'
p225
F1401413938.0
sS'c:\\marmalade\\7.3\\s3e\\makefile_builder\\templates\\vc10_user.pyc'
p226
F1401413938.0
sS'c:\\marmalade\\7.3\\s3e\\makefile_builder\\templates\\wp8_ext_csproj.pyc'
p227
F1401413938.0
sS'c:\\marmalade\\7.3\\s3e\\makefile_builder\\plugins\\java.pyc'
p228
F1401413936.0
sS'c:\\marmalade\\7.3\\s3e\\makefile_builder\\templates\\MainWindow.xib'
p229
F1401412654.0
sS'c:\\marmalade\\7.3\\s3e\\makefile_builder\\templates\\qmake_user.py'
p230
F1401412654.0
sS'c:\\marmalade\\7.3\\s3e\\makefile_builder\\plugins\\win8_utils.pyc'
p231
F1401413936.0
sS'c:\\marmalade\\7.3\\s3e\\makefile_builder\\templates\\xcode.py'
p232
F1401412654.0
sS'c:\\marmalade\\7.3\\s3e\\makefile_builder\\mkb_parser.pyc'
p233
F1401413936.0
sS'c:\\marmalade\\7.3\\s3e\\makefile_builder\\plugins\\xcode4_schememanagement.pyc'
p234
F1401919058.5265553
sS'c:\\marmalade\\7.3\\s3e\\makefile_builder\\plugins\\s3e_qmake.pyc'
p235
F1401919058.6386337
sS'c:\\marmalade\\7.3\\s3e\\makefile_builder\\templates\\ws8_ext_csproj.pyc'
p236
F1401413938.0
sS'c:\\marmalade\\7.3\\s3e\\makefile_builder\\plugins\\S3EEmitter.pyc'
p237
F1401413936.0
sS'c:\\marmalade\\7.3\\s3e\\makefile_builder\\plugins\\xcode4_schememanagement.py'
p238
F1401412654.0
sS'c:\\marmalade\\7.3\\s3e\\makefile_builder\\plugins\\s3e_ws8.pyc'
p239
F1401413938.0
sS'c:\\marmalade\\7.3\\s3e\\makefile_builder\\mkb_globals.pyc'
p240
F1401413936.0
sS'c:\\marmalade\\7.3\\s3e\\makefile_builder\\templates\\gdb_start.txt'
p241
F1401412654.0
sS'c:\\marmalade\\7.3\\s3e\\makefile_builder\\docs\\deployment_options.txt'
p242
F1401412654.0
sS'c:\\marmalade\\7.3\\s3e\\makefile_builder\\plugins\\vc7_utils.pyc'
p243
F1401413936.0
sS'c:\\marmalade\\7.3\\s3e\\makefile_builder\\tool_launcher.exe'
p244
F1401413054.0
sS'c:\\marmalade\\7.3\\s3e\\makefile_builder\\plugins\\iphone.pyc'
p245
F1401413938.0
sccopy_reg
_reconstructor
p246
(cmkb_main
MkbFile
p247
c__builtin__
object
p248
Ntp249
Rp250
(dp251
g3
(lp252
sS'target_name'
p253
S'c:/Users/David/git/RadioApp/UCCSRadio/streamerExtension/lib/win32/streamerExtension.dll'
p254
sS'current_file'
p255
g96
sS'package_path'
p256
(lp257
sS'post_build'
p258
(lp259
sS'librarys'
p260
(lp261
g246
(cmkb_main
Library
p262
g248
Ntp263
Rp264
(dp265
S'name'
p266
S'edk.lib'
p267
sS'expand_name'
p268
I01
sS'include_spec_rvct_objs'
p269
(lp270
sS'include_all_objs'
p271
NsS'share_arm'
p272
NsS'arch'
p273
NsS'nodebug'
p274
I00
sg24
NsbasS'library_paths'
p275
(lp276
g246
(cmkb_main
LibraryPath
p277
g248
Ntp278
Rp279
(dp280
S'expand_path'
p281
I01
sg266
S'c:/marmalade/7.3/s3e/edk/lib/win32'
p282
sbasS'macros'
p283
(dp284
S'IW_TRACE_CHANNEL_STREAMEREXTENSION'
p285
S'1'
p286
sS'_DEBUG'
p287
NsS'IW_TRACE_CHANNEL_STREAMEREXTENSION_VERBOSE'
p288
S'2'
p289
sS'S3E_EXT_STREAMEREXTENSION'
p290
NsS'I3D_PLATFORM_WIN32'
p291
NsS'NDEBUG'
p292
NsS'IW_SDK'
p293
NsS'IW_USE_ASSERTIONS'
p294
NsS'I3D_OS_WINDOWS'
p295
NsS'WIN32'
p296
NsS'S3E_BUILD_EXT'
p297
NsS'I3D_ARCH_X86'
p298
NsS'IW_ASSERTION_CHANNEL_STREAMEREXTENSION'
p299
g286
sS'IW_MKF_STREAMEREXTENSION_BUILD'
p300
NsS'IW_MKF_EDK'
p301
NsS'IW_PLATFORM_WIN32'
p302
NsS'IW_DEBUG'
p303
NsS'IW_USE_TRACING'
p304
NsS'_WINDOWS'
p305
NssS'done_warnings'
p306
(dp307
sS'subprojects'
p308
(dp309
g130
S'c:\\marmalade\\7.3/s3e/edk'
p310
sg129
S'streamerExtension_build'
p311
ssS'deployments'
p312
(dp313
S'Default'
p314
g246
(cdeployment
Deployment
p315
g248
Ntp316
Rp317
(dp318
S'got_version'
p319
I0
sS'assets'
p320
g314
sS'mkb'
p321
g250
sS'target'
p322
Nsg273
(lp323
sS'options'
p324
(dp325
S'iphone-link-lib'
p326
(lp327
sS'game-icf'
p328
NsS'winmobile-icon32'
p329
NsS'ws8-logo-image150x150'
p330
NsS'ws81-product-version'
p331
NsS'osx-ext-dll'
p332
(lp333
sS'iphone-provisioning-profile'
p334
NsS'ws8-splash-screen-image620x300'
p335
NsS'ws8-ext-capabilities'
p336
(lp337
sS'android-icon-hdpi'
p338
NsS'brew-icon-large'
p339
NsS'iphone-splash-full-orient'
p340
NsS'wp8-tile-fliptemplate-supports-large'
p341
NsS'iphone-show-status-bar'
p342
NsS'roku-requires-mkv'
p343
NsS'long-caption'
p344
NsS'android-pkgname'
p345
NsS'blackberry-permissions-read-device-identifying-information'
p346
NsS'ws81-certificate-end-date'
p347
NsS'psp-dlgcontentid'
p348
NsS'target-folder'
p349
NsS'tizen-dist1-CA-path'
p350
NsS'symbian-icon2-format'
p351
NsS'iphone-region'
p352
NsS'uiq3-icon3-mask'
p353
NsS'brew-encoding'
p354
NsS'android-x86'
p355
NsS'nds-initialcode'
p356
NsS'iphone-persistent-wifi'
p357
NsS'psp-snd0'
p358
NsS'osx-signing-identity-inst'
p359
NsS'winmobile-install-folder'
p360
NsS'android-external-res'
p361
(lp362
sS'ws8-product-version'
p363
NsS'brew-priviledges'
p364
NsS'iphone-icon-ipad-search'
p365
NsS'iphone-icon-ipad'
p366
NsS'roku-hidden'
p367
NsS'psp-titlename'
p368
NsS'symbian-icon1-mask'
p369
NsS'psp-parentallevel'
p370
NsS'splashscreen-use-all'
p371
NsS'wp8-author'
p372
NsS'symbian-disable-ecompxl'
p373
NsS'splashscreen-auto-onblack'
p374
NsS'win32-ext-dll'
p375
(lp376
sS'iphone-development-key'
p377
NsS'winmobile-icon48'
p378
NsS'android-unsigned'
p379
NsS'osx-appstore-category'
p380
NsS'version-revision'
p381
NsS'roku-icon-focus-sd'
p382
NsS'android-keystore'
p383
NsS'winmobile-png90'
p384
NsS'iphone-icon-ipad-high-res'
p385
NsS'iphone-disable-ipad'
p386
NsS'wp8-product-id'
p387
NsS'ws81-splash-screen-background'
p388
NsS'wp8-ext-capabilities'
p389
(lp390
sS'iphone-ipad-only'
p391
NsS'symbian-icon1-mask-black'
p392
NsS'iphone-bundle-localisations'
p393
NsS'winmobile-png60'
p394
NsS'blackberry-permissions-access-shared'
p395
NsS'blackberry-author'
p396
NsS'android-icon-xxxhdpi'
p397
NsS'olddeploytoolstyle'
p398
NsS'android_icon_gallery'
p399
NsS'winmobile-cab-compress'
p400
NsS'ws81-ext-managed-dll'
p401
(lp402
sS'win32-icon'
p403
NsS'symbian-key'
p404
NsS'app-icf'
p405
NsS'blackberry-storepass'
p406
NsS'wp8-tile-fliptemplate-back-title'
p407
NsS'brew-compress-loader'
p408
NsS'win32-pref-windowposy'
p409
NsS'win32-pref-windowposx'
p410
NsS'roku-requires-audiometadata'
p411
NsS'wp8-exclude-low-mem'
p412
NsS'wp8-tile-fliptemplate-title'
p413
NsS'iphone-icon-ipad-search-high-res'
p414
NsS'iphone-link-libdir'
p415
(lp416
sS'blackberry-permissions-read-geolocation'
p417
NsS'winmobile-nouninstall'
p418
NsS'tizen-signed'
p419
NsS'android-extra-application-manifest'
p420
(lp421
sS'ws8-ext-native-dll'
p422
(lp423
sS'symbian-icon2-mask'
p424
NsS'iphone-backgroundmode-audio'
p425
NsS'webos-memory'
p426
NsS'android-keypass'
p427
NsS'name'
p428
NsS'uiq3-icon2-format'
p429
NsS'roku-splash-screen-sd'
p430
NsS'auto-derbh'
p431
NsS'roku-icon-side-sd'
p432
NsS'symbian-maxheapsize'
p433
NsS'nds-publicsavedatasize'
p434
NsS'splashscreen'
p435
NsS'brew-mif'
p436
NsS'iphone-icon-settings-high-res'
p437
NsS'android-manifest'
p438
NsS'ws81-splash-screen-image620x300'
p439
NsS's3e-compression'
p440
NsS'tizen-author-password'
p441
NsS'wp8-tile-fliptemplate-back-content'
p442
NsS'symbian-icon1'
p443
NsS'symbian-icon2'
p444
NsS'android-extra-styles-file'
p445
NsS'nds-bannertitle-jp'
p446
NsS'osx-sign-for-store'
p447
NsS'symbian7-uid'
p448
NsS'wp8-tile-fliptemplate-large-back-content'
p449
NsS'nds-bannertitle-cn'
p450
NsS'iphone-distribution-key'
p451
NsS'android-icon-gallery'
p452
NsS'blackberry-keystore'
p453
NsS'iphone-nosign'
p454
NsS'caption'
p455
NsS'android-extra-manifest'
p456
(lp457
sS'android-icon-xxhdpi'
p458
NsS'version-minor'
p459
NsS'iphone-link-libdirs'
p460
(lp461
sS'iphone-icon-large'
p462
NsS'symbian-keypwd'
p463
NsS'symbian8-uid'
p464
NsS'symbian-cert-key'
p465
NsS'winmobile-ampd-part-number'
p466
NsS'arch'
p467
NsS'nds-romheadertemplate'
p468
NsS'webos-icon'
p469
NsS'psp-dlgprotectdocument'
p470
NsS'ws8-splash-screen-background'
p471
NsS'android-icon-mdpi'
p472
NsS'nds-icon'
p473
NsS'ws8-custom-manifest-fill'
p474
NsS'iphone-development-cert'
p475
NsS'blackberry-phone-icon'
p476
NsS'iphone-enable-4inch-retina'
p477
NsS'ws8-custom-manifest'
p478
NsS'version-major'
p479
NsS'wp8-genre-isgame'
p480
NsS'uiq3-uid'
p481
NsS'iphone-splash-retina-generate'
p482
NsS'tizen-hw-acceleration'
p483
NsS'iphone_bundle_localisations'
p484
NsS'tizen-dist1-key'
p485
NsS'wp8-custom-manifest'
p486
NsS'nds-bannertitle-ge'
p487
NsS'iphone-sign-for-distribution'
p488
NsS'wp8-tile-fliptemplate-medium-back-image'
p489
NsS'wp8-publisher-id'
p490
NsS'icon'
p491
NsS'wp8-exclude-wxga'
p492
NsS'uiq3-icon2-mask'
p493
NsS'iphone-splashscreen-portrait'
p494
NsS'iphone-icon-high-res'
p495
NsS'ws81-distribution-pfx-password'
p496
NsS'playbook-author'
p497
NsS'android-icon-xhdpi'
p498
NsS'linux-ext-lib'
p499
(lp500
sS'blackberry-permissions-access-internet'
p501
NsS'wp8-exclude-720p'
p502
NsS'lgtv-use-drm'
p503
NsS'symbian-platsecflags'
p504
NsS'ws8-description'
p505
NsS'blackberry-playbook-icon'
p506
NsS'copyright'
p507
NsS'version'
p508
NsS'ws81-logo-image150x150'
p509
NsS'osx-signing-identity-app'
p510
NsS'tizen-project-url'
p511
NsS'symbian-icon-svg'
p512
NsS'android-aliasname'
p513
NsS'psp-dlgmanual'
p514
NsS'brew-uid'
p515
NsS'symbian-locationsupport'
p516
NsS'ws8-ext-managed-dll'
p517
(lp518
sS'ws81-ext-sdk-ref-file'
p519
(lp520
sS'nds-bannertitle-it'
p521
NsS'ws8-ext-sdk-manifest-part'
p522
(lp523
sS'uiq3-icon1-mask'
p524
NsS'winmobile-icon16'
p525
NsS'ws8-product-name'
p526
NsS'blackberry-cskpass'
p527
NsS'winmobile-start-menu-folder'
p528
NsS'brew-clsid'
p529
NsS'roku-requires-bluetooth'
p530
NsS'ws8-ext-device-capabilities'
p531
(lp532
sS'blackberry-permissions-use-camera'
p533
NsS'iphone-prerendered-icon'
p534
NsS'iphone-appid'
p535
NsS'ws8-identity-name'
p536
NsS'tizen-dist2-CA-path'
p537
NsS'winmobile-icon64'
p538
NsS'blackberry-permissions-post-notification'
p539
NsS'winmobile-setup-dll'
p540
NsS'android-external-jars'
p541
(lp542
sS'symbian9-uid'
p543
NsS'iphone-icon-ipad-ios7'
p544
NsS'winmobile-trace-file'
p545
NsS'roku-splash-color'
p546
NsS'psp-appversion'
p547
NsS'ws8-publisher-id'
p548
NsS'android-supports-gl-texture'
p549
(lp550
sS'winmobile-png45'
p551
NsS'android-storepass'
p552
NsS'roku-icon-focus-hd'
p553
NsS'android-custom-activity'
p554
NsS'psp-discversion'
p555
NsS'psp-copyright'
p556
NsS'embed-icf'
p557
NsS'tizen-manifest'
p558
NsS'osx-icon'
p559
NsS'webos-appinfo'
p560
NsS'psp-dlghealthwarning'
p561
NsS'webos-appid'
p562
NsS'roku-icon-side-hd'
p563
NsS'iphone-icon-ipad-search-high-res-ios7'
p564
NsS'ws81-ext-sdk-manifest-part'
p565
(lp566
sS'loader_name_prefix'
p567
NsS'nds-titlename'
p568
NsS'ws81-logo-image50x50'
p569
NsS'osx-entitlements-plist'
p570
NsS'psp-dlgicon0'
p571
NsS'ws81-ext-device-capabilities'
p572
(lp573
sS'psp-discid'
p574
NsS'tizen-dist2-password'
p575
NsS'ws8-ext-sdk-ref'
p576
(lp577
sS'iphone-extra-string'
p578
(lp579
sS'version-string'
p580
NsS'iphone-icon-high-res-ios7'
p581
NsS'blackberry-permissions-record-audio'
p582
NsS'ws8-certificate-end-date'
p583
NsS'tizen-so'
p584
(lp585
sS'wp8-tile-fliptemplate-small-image'
p586
NsS'pkguid-as-uid'
p587
NsS'iphone-signing-identity'
p588
NsS'roku-persist-quota'
p589
NsS'nds-bannertitle-fr'
p590
NsS'ws8-distribution-pfx'
p591
NsS'ws8-publisher-display-name'
p592
NsS'brew-icon-small'
p593
NsS'psp-dlgpic2'
p594
NsS'psp-dlgpic0'
p595
NsS'psp-pic0'
p596
NsS'psp-pic1'
p597
NsS'psp-icon0'
p598
NsS'psp-icon1'
p599
NsS'ws81-identity-name'
p600
NsS'winmobile-icon'
p601
NsS'iphone-no-splash'
p602
NsS'iphone-splash'
p603
NsS'iphone-app-fonts'
p604
NsS'wp8-ext-native-dll'
p605
(lp606
sS'ws81-distribution-cer'
p607
NsS'uiq3-icon2'
p608
NsS'uiq3-icon3'
p609
NsS'uiq3-icon1'
p610
NsS'uiq3-icon1-format'
p611
NsS'ws8-logo-image50x50'
p612
NsS'symbian-icon2-mask-black'
p613
NsS'symbian-run-on-install'
p614
NsS'ws81-publisher-display-name'
p615
NsS'ws81-custom-manifest-fill'
p616
NsS'symbian-soundrecordsupport'
p617
NsS'nds-bannertitle-sp'
p618
NsS'psp-producer'
p619
NsS'iphone-apple-wwdr-cert'
p620
NsS'android-icon-nonstandard'
p621
NsS'win32-pref-processtitle'
p622
NsS'nds-bannertitle-hn'
p623
NsS'tizen-dist2-key'
p624
NsS'brew-depends'
p625
NsS'ws81-custom-manifest'
p626
NsS'iphone-icon-ipad-search-ios7'
p627
NsS'brew-icon-medium'
p628
NsS'iphone-bundle-url-name'
p629
NsS'wp8-tile-fliptemplate-large-front-image'
p630
NsS'tizen-dist2-CA-root-path'
p631
NsS'ws81-description'
p632
NsS'uiq3-icon3-format'
p633
NsS'ws81-logo-image30x30'
p634
NsS'iphone-signing-host'
p635
NsS'tizen-icon'
p636
NsS'osx-info-plist'
p637
NsS'symbian-icon1-format'
p638
NsS'ws81-distribution-pfx'
p639
NsS'blackberry-authorid'
p640
NsS'ws81-publisher-id'
p641
NsS'ws81-ext-sdk-ref'
p642
(lp643
sS'wp8-description'
p644
NsS'iphone-link-opts'
p645
(lp646
sS'roku-splash-min-time'
p647
NsS'wp8-tile-fliptemplate-medium-front-image'
p648
NsS'provider'
p649
NsS'playbook-keystore'
p650
NsS'tizen-appid'
p651
NsS'tizen-author-key'
p652
NsS'symbian-osexecsupport'
p653
NsS'android-install-location'
p654
NsS'nds-privatesavedatasize'
p655
NsS'playbook-storepass'
p656
NsS'android-icon-ldpi'
p657
NsS'manufacturer'
p658
NsS'itunes-artwork'
p659
NsS'iphone-extra-sections'
p660
NsS'ws81-product-name'
p661
NsS'ws81-ext-native-dll'
p662
(lp663
sS'iphone-info-plist'
p664
NsS'ws8-distribution-pfx-password'
p665
NsS'ws8-logo-image30x30'
p666
NsS'wp8-ext-managed-dll'
p667
(lp668
sS'iphone-splashscreen-landscape'
p669
NsS'nds-makercode'
p670
NsS'priv-sign-key'
p671
NsS'networking'
p672
NsS'android-icon'
p673
NsS'iphone-icon-settings'
p674
NsS'iphone-distribution-cert'
p675
NsS'android_extra_strings'
p676
NsS'nds-bannertitle-en'
p677
NsS'playbook-cskpass'
p678
NsS'android-so'
p679
(lp680
sS'wp8-higher-mem'
p681
NsS'roku-splash-screen-hd'
p682
NsS'iphone-bundle-url-schemes'
p683
NsS'roku-screensaver-private'
p684
NsS'osx-extra-res'
p685
(lp686
sS'playbook-icon'
p687
NsS'uid'
p688
NsS'playbook-authorid'
p689
NsS'win32-pref-windowtitle'
p690
NsS'tizen-dist1-password'
p691
NsS'roku-screensaver-title'
p692
NsS'osx-minimum-osx-version'
p693
NsS'symbian-cert'
p694
NsS'iphone-icon'
p695
NsS'ws81-ext-capabilities'
p696
(lp697
sS'ws8-distribution-cer'
p698
NsS'playbook-access-shared'
p699
NsS'iphone-icon-ipad-high-res-ios7'
p700
NsS'iphone-link-libs'
p701
(lp702
sS'wp8-exclude-wvga'
p703
NsS'assets'
p704
NsS'wp8-tile-fliptemplate-large-back-image'
p705
NsS'wp8-custom-manifest-fill'
p706
NsS'pub-sign-key'
p707
NsS'android-extra-strings'
p708
NsS'tizen-author-CA-path'
p709
Nssg266
g314
sbssS'platform'
p710
S'WIN32'
p711
sg50
S'1.0'
p712
sS'arcade_platform'
p713
g2
sS'extensions'
p714
(dp715
sS'source_groups_tree'
p716
(dp717
S'edk'
p718
(dp719
S'h'
p720
(dp721
S'c:/marmalade/7.3/s3e/edk/h/s3eEdk_osx.h'
p722
(lp723
I1
a(dp724
asS'c:/marmalade/7.3/s3e/edk/h/s3eEdk.h'
p725
(lp726
I1
ag724
asS'c:/marmalade/7.3/s3e/edk/h/s3eEdkError.h'
p727
(lp728
I1
ag724
asS'c:/marmalade/7.3/s3e/edk/h/s3eEdk_iphone.h'
p729
(lp730
I1
ag724
asS'c:/marmalade/7.3/s3e/edk/h/s3eEdk_android.h'
p731
(lp732
I1
ag724
asS'c:/marmalade/7.3/s3e/edk/h/s3eEdk_windows.h'
p733
(lp734
I1
ag724
assS'S3E API'
p735
(dp736
S'c:/marmalade/7.3/s3e/h/s3eConfig.h'
p737
(lp738
I1
ag724
asS'c:/marmalade/7.3/s3e/h/s3eAudio.h'
p739
(lp740
I1
ag724
asS'c:/marmalade/7.3/s3e/h/s3eExt.h'
p741
(lp742
I1
ag724
asS'c:/marmalade/7.3/s3e/h/AirplayVersion.h'
p743
(lp744
I1
ag724
asS'c:/marmalade/7.3/s3e/h/s3eClipboard.h'
p745
(lp746
I1
ag724
asS'c:/marmalade/7.3/s3e/h/s3eSoundRecord.h'
p747
(lp748
I1
ag724
asS'c:/marmalade/7.3/s3e/h/s3eHash.h'
p749
(lp750
I1
ag724
asS'c:/marmalade/7.3/s3e/h/s3eFile.h'
p751
(lp752
I1
ag724
asS'c:/marmalade/7.3/s3e/h/s3e.h'
p753
(lp754
I1
ag724
asS'c:/marmalade/7.3/s3e/h/s3eSound.h'
p755
(lp756
I1
ag724
asS'c:/marmalade/7.3/s3e/h/s3eSurface.h'
p757
(lp758
I1
ag724
asS'c:/marmalade/7.3/s3e/h/s3eDevice.h'
p759
(lp760
I1
ag724
asS'c:/marmalade/7.3/s3e/h/s3eCompression.h'
p761
(lp762
I1
ag724
asS'c:/marmalade/7.3/s3e/h/s3eContacts.h'
p763
(lp764
I1
ag724
asS'c:/marmalade/7.3/s3e/h/s3eVideo.h'
p765
(lp766
I1
ag724
asS'c:/marmalade/7.3/s3e/h/s3eThread.h'
p767
(lp768
I1
ag724
asS'c:/marmalade/7.3/s3e/h/s3eGL.h'
p769
(lp770
I1
ag724
asS'c:/marmalade/7.3/s3e/h/s3eVibra.h'
p771
(lp772
I1
ag724
asS'c:/marmalade/7.3/s3e/h/s3eAccelerometer.h'
p773
(lp774
I1
ag724
asS'c:/marmalade/7.3/s3e/h/s3eCamera.h'
p775
(lp776
I1
ag724
asS'c:/marmalade/7.3/s3e/h/s3eDebug.h'
p777
(lp778
I1
ag724
asS'c:/marmalade/7.3/s3e/h/s3eCompass.h'
p779
(lp780
I1
ag724
asS'c:/marmalade/7.3/s3e/h/s3eTypes.h'
p781
(lp782
I1
ag724
asS'c:/marmalade/7.3/s3e/h/s3eKeyboard.h'
p783
(lp784
I1
ag724
asS'c:/marmalade/7.3/s3e/h/s3eCrypto.h'
p785
(lp786
I1
ag724
asS'c:/marmalade/7.3/s3e/h/s3eVersion.h'
p787
(lp788
I1
ag724
asS'c:/marmalade/7.3/s3e/h/s3ePointer.h'
p789
(lp790
I1
ag724
asS'c:/marmalade/7.3/s3e/h/s3eLocation.h'
p791
(lp792
I1
ag724
asS'c:/marmalade/7.3/s3e/h/MarmaladeVersion.h'
p793
(lp794
I1
ag724
asS'c:/marmalade/7.3/s3e/h/s3eTimer.h'
p795
(lp796
I1
ag724
asS'c:/marmalade/7.3/s3e/h/s3eSecureStorage.h'
p797
(lp798
I1
ag724
asS'c:/marmalade/7.3/s3e/h/s3eSocket.h'
p799
(lp800
I1
ag724
asS'c:/marmalade/7.3/s3e/h/s3eMemory.h'
p801
(lp802
I1
ag724
asS'c:/marmalade/7.3/s3e/h/s3eLicense.h'
p803
(lp804
I1
ag724
assS'c:/marmalade/7.3/s3e/edk/edk.mkf'
p805
(lp806
I1
a(dp807
assS'Extensions'
p808
(dp809
S'streamerExtension'
p810
(dp811
S'c:/users/david/git/radioapp/uccsradio/streamerextension/streamerextension_build.mkf'
p812
(lp813
I1
a(dp814
asg720
(dp815
S'c:/users/david/git/radioapp/uccsradio/streamerextension/source/h/streamerExtension_internal.h'
p816
(lp817
I1
a(dp818
asS'c:/users/david/git/radioapp/uccsradio/streamerextension/source/h/streamerExtension_autodefs.h'
p819
(lp820
I1
ag818
assS'source'
p821
(dp822
S'c:/users/david/git/radioapp/uccsradio/streamerextension/source/generic/streamerExtension_register.cpp'
p823
(lp824
I1
ag818
asS'c:/users/david/git/radioapp/uccsradio/streamerextension/source/generic/streamerExtension.cpp'
p825
(lp826
I1
ag818
asS'c:/users/david/git/radioapp/uccsradio/streamerextension/source/windows/streamerExtension_platform.cpp'
p827
(lp828
I1
ag818
assS'c:/users/david/git/radioapp/uccsradio/streamerextension/streamerExtension.s4e'
p829
(lp830
I1
ag818
asS'docs'
p831
(dp832
S'c:/users/david/git/radioapp/uccsradio/streamerextension/interface/streamerExtension.defines.txt'
p833
(lp834
I1
ag818
assS'c:/marmalade/7.3/s3e/edk/builder/edk_build.py'
p835
(lp836
I1
a(lp837
assssS'files'
p838
(dp839
S's3eDevice.h'
p840
g246
(cmkb_main
File
p841
g248
Ntp842
Rp843
(dp844
S'flags'
p845
g724
sS'group'
p846
(lp847
g718
ag735
asg266
g759
sbsS's3eThread.h'
p848
g246
(g841
g248
Ntp849
Rp850
(dp851
g845
g724
sg846
g847
sg266
g767
sbsS's3eCompass.h'
p852
g246
(g841
g248
Ntp853
Rp854
(dp855
g845
g724
sg846
g847
sg266
g779
sbsS's3eCompression.h'
p856
g246
(g841
g248
Ntp857
Rp858
(dp859
g845
g724
sg846
g847
sg266
g761
sbsS's3eEdk_iphone.h'
p860
g246
(g841
g248
Ntp861
Rp862
(dp863
g845
g724
sg846
(lp864
g718
ag720
asg266
g729
sbsS'AirplayVersion.h'
p865
g246
(g841
g248
Ntp866
Rp867
(dp868
g845
g724
sg846
g847
sg266
g743
sbsS's3eTimer.h'
p869
g246
(g841
g248
Ntp870
Rp871
(dp872
g845
g724
sg846
g847
sg266
g795
sbsS's3e.h'
p873
g246
(g841
g248
Ntp874
Rp875
(dp876
g845
g724
sg846
g847
sg266
g753
sbsS's3eSoundRecord.h'
p877
g246
(g841
g248
Ntp878
Rp879
(dp880
g845
g724
sg846
g847
sg266
g747
sbsS's3eConfig.h'
p881
g246
(g841
g248
Ntp882
Rp883
(dp884
g845
g724
sg846
g847
sg266
g737
sbsS's3eVibra.h'
p885
g246
(g841
g248
Ntp886
Rp887
(dp888
g845
g724
sg846
g847
sg266
g771
sbsS'streamerExtension_internal.h'
p889
g246
(g841
g248
Ntp890
Rp891
(dp892
g845
g818
sg846
(lp893
g808
ag810
ag720
asg266
g816
sbsS's3eExt.h'
p894
g246
(g841
g248
Ntp895
Rp896
(dp897
g845
g724
sg846
g847
sg266
g741
sbsS's3eVersion.h'
p898
g246
(g841
g248
Ntp899
Rp900
(dp901
g845
g724
sg846
g847
sg266
g787
sbsS'MarmaladeVersion.h'
p902
g246
(g841
g248
Ntp903
Rp904
(dp905
g845
g724
sg846
g847
sg266
g793
sbsS's3eSound.h'
p906
g246
(g841
g248
Ntp907
Rp908
(dp909
g845
g724
sg846
g847
sg266
g755
sbsS's3eAudio.h'
p910
g246
(g841
g248
Ntp911
Rp912
(dp913
g845
g724
sg846
g847
sg266
g739
sbsS'streamerextension_build.mkf'
p914
g246
(g841
g248
Ntp915
Rp916
(dp917
g845
g814
sg846
(lp918
g808
ag810
asg266
g812
sbsS's3eEdk_android.h'
p919
g246
(g841
g248
Ntp920
Rp921
(dp922
g845
g724
sg846
g864
sg266
g731
sbsS's3ePointer.h'
p923
g246
(g841
g248
Ntp924
Rp925
(dp926
g845
g724
sg846
g847
sg266
g789
sbsS's3eCamera.h'
p927
g246
(g841
g248
Ntp928
Rp929
(dp930
g845
g724
sg846
g847
sg266
g775
sbsS's3eTypes.h'
p931
g246
(g841
g248
Ntp932
Rp933
(dp934
g845
g724
sg846
g847
sg266
g781
sbsS's3eContacts.h'
p935
g246
(g841
g248
Ntp936
Rp937
(dp938
g845
g724
sg846
g847
sg266
g763
sbsS's3eEdk.h'
p939
g246
(g841
g248
Ntp940
Rp941
(dp942
g845
g724
sg846
g864
sg266
g725
sbsS's3eSurface.h'
p943
g246
(g841
g248
Ntp944
Rp945
(dp946
g845
g724
sg846
g847
sg266
g757
sbsS'streamerExtension_platform.cpp'
p947
g246
(g841
g248
Ntp948
Rp949
(dp950
g845
g818
sg846
(lp951
g808
ag810
ag821
asg266
g827
sbsS's3eAccelerometer.h'
p952
g246
(g841
g248
Ntp953
Rp954
(dp955
g845
g724
sg846
g847
sg266
g773
sbsS's3eMemory.h'
p956
g246
(g841
g248
Ntp957
Rp958
(dp959
g845
g724
sg846
g847
sg266
g801
sbsS's3eEdk_osx.h'
p960
g246
(g841
g248
Ntp961
Rp962
(dp963
g845
g724
sg846
g864
sg266
g722
sbsS's3eCrypto.h'
p964
g246
(g841
g248
Ntp965
Rp966
(dp967
g845
g724
sg846
g847
sg266
g785
sbsS's3eKeyboard.h'
p968
g246
(g841
g248
Ntp969
Rp970
(dp971
g845
g724
sg846
g847
sg266
g783
sbsS's3eFile.h'
p972
g246
(g841
g248
Ntp973
Rp974
(dp975
g845
g724
sg846
g847
sg266
g751
sbsS's3eEdkError.h'
p976
g246
(g841
g248
Ntp977
Rp978
(dp979
g845
g724
sg846
g864
sg266
g727
sbsS'streamerExtension_autodefs.h'
p980
g246
(g841
g248
Ntp981
Rp982
(dp983
g845
g818
sg846
g893
sg266
g819
sbsS's3eSecureStorage.h'
p984
g246
(g841
g248
Ntp985
Rp986
(dp987
g845
g724
sg846
g847
sg266
g797
sbsS'streamerExtension.cpp'
p988
g246
(g841
g248
Ntp989
Rp990
(dp991
g845
g818
sg846
g951
sg266
g825
sbsS's3eLocation.h'
p992
g246
(g841
g248
Ntp993
Rp994
(dp995
g845
g724
sg846
g847
sg266
g791
sbsS'edk_build.py'
p996
g246
(g841
g248
Ntp997
Rp998
(dp999
g845
g837
sg846
g918
sg266
g835
sbsS'streamerExtension.defines.txt'
p1000
g246
(g841
g248
Ntp1001
Rp1002
(dp1003
g845
g818
sg846
(lp1004
g808
ag810
ag831
asg266
g833
sbsS's3eHash.h'
p1005
g246
(g841
g248
Ntp1006
Rp1007
(dp1008
g845
g724
sg846
g847
sg266
g749
sbsS's3eClipboard.h'
p1009
g246
(g841
g248
Ntp1010
Rp1011
(dp1012
g845
g724
sg846
g847
sg266
g745
sbsS's3eGL.h'
p1013
g246
(g841
g248
Ntp1014
Rp1015
(dp1016
g845
g724
sg846
g847
sg266
g769
sbsS's3eEdk_windows.h'
p1017
g246
(g841
g248
Ntp1018
Rp1019
(dp1020
g845
g724
sg846
g864
sg266
g733
sbsS's3eDebug.h'
p1021
g246
(g841
g248
Ntp1022
Rp1023
(dp1024
g845
g724
sg846
g847
sg266
g777
sbsS'edk.mkf'
p1025
g246
(g841
g248
Ntp1026
Rp1027
(dp1028
g845
g807
sg846
(lp1029
g718
asg266
g805
sbsS's3eLicense.h'
p1030
g246
(g841
g248
Ntp1031
Rp1032
(dp1033
g845
g724
sg846
g847
sg266
g803
sbsS'streamerExtension_register.cpp'
p1034
g246
(g841
g248
Ntp1035
Rp1036
(dp1037
g845
g818
sg846
g951
sg266
g823
sbsS's3eVideo.h'
p1038
g246
(g841
g248
Ntp1039
Rp1040
(dp1041
g845
g724
sg846
g847
sg266
g765
sbsS's3eSocket.h'
p1042
g246
(g841
g248
Ntp1043
Rp1044
(dp1045
g845
g724
sg846
g847
sg266
g799
sbsS'streamerExtension.s4e'
p1046
g246
(g841
g248
Ntp1047
Rp1048
(dp1049
g845
g818
sg846
(lp1050
g808
ag810
asg266
g829
sbssS'juice_build_type'
p1051
g2
sS'tests'
p1052
(lp1053
sS'project_name'
p1054
S'streamerExtension_windows'
p1055
sS'root_file'
p1056
g96
sS'current_root'
p1057
S'c:/Users/David/git/RadioApp/UCCSRadio/streamerExtension'
p1058
sS'dependencies'
p1059
(lp1060
sS'include_paths'
p1061
(lp1062
S'c:/users/david/git/radioapp/uccsradio/streamerextension/source/h'
p1063
aS'c:/users/david/git/radioapp/uccsradio/streamerextension/h'
p1064
aS'c:/marmalade/7.3/s3e/edk/h'
p1065
aS'c:/marmalade/7.3/s3e/h'
p1066
aS'c:/marmalade/7.3/s3e/h/ext'
p1067
aS'c:/marmalade/7.3/modules/iwutil/h'
p1068
aS'c:/marmalade/7.3/modules/iwcore/h'
p1069
asS'weak_frameworks'
p1070
(lp1071
sS'extprojects'
p1072
(dp1073
sg320
(dp1074
g314
(lp1075
ssS'macro_types'
p1076
(dp1077
g285
I0
sg287
I1
sg288
I0
sg290
I0
sg291
I0
sg292
I2
sg293
I0
sg294
I1
sg295
I0
sg296
I0
sg297
I0
sg298
I0
sg299
I0
sg300
I0
sg301
I0
sg302
I0
sg303
I01
sg304
I1
sg305
I0
ssS'commands'
p1078
(lp1079
sg322
(g711
S'VC12X'
p1080
S'X86'
p1081
tp1082
sS'build_libs'
p1083
(dp1084
sg324
g0
sS'frameworks'
p1085
(lp1086
sS'environ'
p1087
(dp1088
S'EDK_BUILDER'
p1089
S'c:\\marmalade\\7.3/s3e/edk/builder'
p1090
ssS'target_name_debug'
p1091
S'c:/Users/David/git/RadioApp/UCCSRadio/streamerExtension/lib/win32/streamerExtension_d.dll'
p1092
sS'builders'
p1093
(dp1094
g314
(dp1095
S'.S'
p1096
(dp1097
S'rvct'
p1098
(lp1099
S'.obj'
p1100
aS'echo ARM Assembling(RVCT) ${SOURCE}...'
p1101
aS'c:/marmalade/7.3/s3e\\rvct\\bin\\armasm -o ${TARGET} ${SOURCE}'
p1102
asS'gcc'
p1103
(lp1104
g1100
aS'echo ARM Assembling(GCC) ${SOURCE}...'
p1105
aS'c:/marmalade/7.3/s3e\\gcc\\bin\\arm-none-eabi-gcc -c -o ${TARGET} ${SOURCE}'
p1106
asS'ppu'
p1107
(lp1108
S'.a'
p1109
aS'echo PPU Assembling(SNC) ${SOURCE}...'
p1110
aS'c:/marmalade/7.3/s3e\\rvct\\bin\\armasm -o ${TARGET} ${SOURCE}'
p1111
assS'.s'
p1112
g1097
sssS'extproject_names'
p1113
(lp1114
sbtp1115
.