	.arch armv5te
	.fpu softvfp
	.eabi_attribute 20, 1
	.eabi_attribute 21, 1
	.eabi_attribute 23, 3
	.eabi_attribute 24, 1
	.eabi_attribute 25, 1
	.eabi_attribute 26, 2
	.eabi_attribute 30, 6
	.eabi_attribute 34, 0
	.eabi_attribute 18, 4
	.file	"streamerExtension_register.cpp"
	.text
.Ltext0:
	.cfi_sections	.debug_frame
	.section	.rodata
	.align	2
.LC0:
	.ascii	"STREAMEREXTENSION_VERBOSE\000"
	.align	2
.LC1:
	.ascii	"calling streamerExtension func on main thread: star"
	.ascii	"tStreamingAudio\000"
	.section	.text._ZL24startStreamingAudio_wrapv,"ax",%progbits
	.align	2
	.type	_ZL24startStreamingAudio_wrapv, %function
_ZL24startStreamingAudio_wrapv:
.LFB33:
	.file 1 "C:\\Users\\David\\git\\RadioApp\\UCCSRadio\\streamerExtension\\source\\generic\\streamerExtension_register.cpp"
	.loc 1 28 0
	.cfi_startproc
	@ args = 0, pretend = 0, frame = 0
	@ frame_needed = 0, uses_anonymous_args = 0
	stmfd	sp!, {r4, lr}
.LCFI0:
	.cfi_def_cfa_offset 8
	.cfi_offset 4, -8
	.cfi_offset 14, -4
	.loc 1 28 0
	ldr	r4, .L4
.LPIC3:
	add	r4, pc, r4
	.loc 1 29 0
	ldr	r3, .L4+4
.LPIC0:
	add	r3, pc, r3
	mov	r0, r3
	mov	r1, #1
	bl	IwDebugTraceIsChannelOn(PLT)
	mov	r3, r0
	cmp	r3, #0
	moveq	r3, #0
	movne	r3, #1
	and	r3, r3, #255
	cmp	r3, #0
	beq	.L2
	.loc 1 29 0 is_stmt 0 discriminator 1
	ldr	r3, .L4+8
.LPIC1:
	add	r3, pc, r3
	mov	r0, r3
	bl	IwDebugTraceSetTraceChannel(PLT)
	ldr	r3, .L4+12
.LPIC2:
	add	r3, pc, r3
	mov	r0, r3
	bl	IwDebugTraceLinePrintf(PLT)
.L2:
	.loc 1 30 0 is_stmt 1
	ldr	r3, .L4+16
	ldr	r3, [r4, r3]
	mov	r0, r3
	mov	r1, #0
	bl	s3eEdkThreadRunOnOS(PLT)
	mov	r3, r0
	.loc 1 31 0
	mov	r0, r3
	ldmfd	sp!, {r4, pc}
.L5:
	.align	2
.L4:
	.word	_GLOBAL_OFFSET_TABLE_-(.LPIC3+8)
	.word	.LC0-(.LPIC0+8)
	.word	.LC0-(.LPIC1+8)
	.word	.LC1-(.LPIC2+8)
	.word	startStreamingAudio(GOT)
	.cfi_endproc
.LFE33:
	.size	_ZL24startStreamingAudio_wrapv, .-_ZL24startStreamingAudio_wrapv
	.section	.rodata
	.align	2
.LC2:
	.ascii	"calling streamerExtension func on main thread: stop"
	.ascii	"StreamingAudio\000"
	.section	.text._ZL23stopStreamingAudio_wrapv,"ax",%progbits
	.align	2
	.type	_ZL23stopStreamingAudio_wrapv, %function
_ZL23stopStreamingAudio_wrapv:
.LFB34:
	.loc 1 34 0
	.cfi_startproc
	@ args = 0, pretend = 0, frame = 0
	@ frame_needed = 0, uses_anonymous_args = 0
	stmfd	sp!, {r4, lr}
.LCFI1:
	.cfi_def_cfa_offset 8
	.cfi_offset 4, -8
	.cfi_offset 14, -4
	.loc 1 34 0
	ldr	r4, .L9
.LPIC7:
	add	r4, pc, r4
	.loc 1 35 0
	ldr	r3, .L9+4
.LPIC4:
	add	r3, pc, r3
	mov	r0, r3
	mov	r1, #1
	bl	IwDebugTraceIsChannelOn(PLT)
	mov	r3, r0
	cmp	r3, #0
	moveq	r3, #0
	movne	r3, #1
	and	r3, r3, #255
	cmp	r3, #0
	beq	.L7
	.loc 1 35 0 is_stmt 0 discriminator 1
	ldr	r3, .L9+8
.LPIC5:
	add	r3, pc, r3
	mov	r0, r3
	bl	IwDebugTraceSetTraceChannel(PLT)
	ldr	r3, .L9+12
.LPIC6:
	add	r3, pc, r3
	mov	r0, r3
	bl	IwDebugTraceLinePrintf(PLT)
.L7:
	.loc 1 36 0 is_stmt 1
	ldr	r3, .L9+16
	ldr	r3, [r4, r3]
	mov	r0, r3
	mov	r1, #0
	bl	s3eEdkThreadRunOnOS(PLT)
	mov	r3, r0
	.loc 1 37 0
	mov	r0, r3
	ldmfd	sp!, {r4, pc}
.L10:
	.align	2
.L9:
	.word	_GLOBAL_OFFSET_TABLE_-(.LPIC7+8)
	.word	.LC0-(.LPIC4+8)
	.word	.LC0-(.LPIC5+8)
	.word	.LC2-(.LPIC6+8)
	.word	stopStreamingAudio(GOT)
	.cfi_endproc
.LFE34:
	.size	_ZL23stopStreamingAudio_wrapv, .-_ZL23stopStreamingAudio_wrapv
	.section	.rodata
	.align	2
.LC3:
	.ascii	"calling streamerExtension func on main thread: paus"
	.ascii	"eStreamingAudio\000"
	.section	.text._ZL24pauseStreamingAudio_wrapv,"ax",%progbits
	.align	2
	.type	_ZL24pauseStreamingAudio_wrapv, %function
_ZL24pauseStreamingAudio_wrapv:
.LFB35:
	.loc 1 40 0
	.cfi_startproc
	@ args = 0, pretend = 0, frame = 0
	@ frame_needed = 0, uses_anonymous_args = 0
	stmfd	sp!, {r4, lr}
.LCFI2:
	.cfi_def_cfa_offset 8
	.cfi_offset 4, -8
	.cfi_offset 14, -4
	.loc 1 40 0
	ldr	r4, .L14
.LPIC11:
	add	r4, pc, r4
	.loc 1 41 0
	ldr	r3, .L14+4
.LPIC8:
	add	r3, pc, r3
	mov	r0, r3
	mov	r1, #1
	bl	IwDebugTraceIsChannelOn(PLT)
	mov	r3, r0
	cmp	r3, #0
	moveq	r3, #0
	movne	r3, #1
	and	r3, r3, #255
	cmp	r3, #0
	beq	.L12
	.loc 1 41 0 is_stmt 0 discriminator 1
	ldr	r3, .L14+8
.LPIC9:
	add	r3, pc, r3
	mov	r0, r3
	bl	IwDebugTraceSetTraceChannel(PLT)
	ldr	r3, .L14+12
.LPIC10:
	add	r3, pc, r3
	mov	r0, r3
	bl	IwDebugTraceLinePrintf(PLT)
.L12:
	.loc 1 42 0 is_stmt 1
	ldr	r3, .L14+16
	ldr	r3, [r4, r3]
	mov	r0, r3
	mov	r1, #0
	bl	s3eEdkThreadRunOnOS(PLT)
	mov	r3, r0
	.loc 1 43 0
	mov	r0, r3
	ldmfd	sp!, {r4, pc}
.L15:
	.align	2
.L14:
	.word	_GLOBAL_OFFSET_TABLE_-(.LPIC11+8)
	.word	.LC0-(.LPIC8+8)
	.word	.LC0-(.LPIC9+8)
	.word	.LC3-(.LPIC10+8)
	.word	pauseStreamingAudio(GOT)
	.cfi_endproc
.LFE35:
	.size	_ZL24pauseStreamingAudio_wrapv, .-_ZL24pauseStreamingAudio_wrapv
	.section	.rodata
	.align	2
.LC4:
	.ascii	"calling streamerExtension func on main thread: init"
	.ascii	"AudioStream\000"
	.section	.text._ZL20initAudioStream_wrapPKci,"ax",%progbits
	.align	2
	.type	_ZL20initAudioStream_wrapPKci, %function
_ZL20initAudioStream_wrapPKci:
.LFB36:
	.loc 1 46 0
	.cfi_startproc
	@ args = 0, pretend = 0, frame = 8
	@ frame_needed = 0, uses_anonymous_args = 0
	stmfd	sp!, {r4, lr}
.LCFI3:
	.cfi_def_cfa_offset 8
	.cfi_offset 4, -8
	.cfi_offset 14, -4
	sub	sp, sp, #8
.LCFI4:
	.cfi_def_cfa_offset 16
	str	r0, [sp, #4]
	str	r1, [sp, #0]
	.loc 1 46 0
	ldr	r4, .L19
.LPIC15:
	add	r4, pc, r4
	.loc 1 47 0
	ldr	r3, .L19+4
.LPIC12:
	add	r3, pc, r3
	mov	r0, r3
	mov	r1, #1
	bl	IwDebugTraceIsChannelOn(PLT)
	mov	r3, r0
	cmp	r3, #0
	moveq	r3, #0
	movne	r3, #1
	and	r3, r3, #255
	cmp	r3, #0
	beq	.L17
	.loc 1 47 0 is_stmt 0 discriminator 1
	ldr	r3, .L19+8
.LPIC13:
	add	r3, pc, r3
	mov	r0, r3
	bl	IwDebugTraceSetTraceChannel(PLT)
	ldr	r3, .L19+12
.LPIC14:
	add	r3, pc, r3
	mov	r0, r3
	bl	IwDebugTraceLinePrintf(PLT)
.L17:
	.loc 1 48 0 is_stmt 1
	ldr	r3, .L19+16
	ldr	r3, [r4, r3]
	mov	r0, r3
	mov	r1, #2
	ldr	r2, [sp, #4]
	ldr	r3, [sp, #0]
	bl	s3eEdkThreadRunOnOS(PLT)
	mov	r3, r0
	.loc 1 49 0
	mov	r0, r3
	add	sp, sp, #8
	ldmfd	sp!, {r4, pc}
.L20:
	.align	2
.L19:
	.word	_GLOBAL_OFFSET_TABLE_-(.LPIC15+8)
	.word	.LC0-(.LPIC12+8)
	.word	.LC0-(.LPIC13+8)
	.word	.LC4-(.LPIC14+8)
	.word	initAudioStream(GOT)
	.cfi_endproc
.LFE36:
	.size	_ZL20initAudioStream_wrapPKci, .-_ZL20initAudioStream_wrapPKci
	.section	.rodata
	.align	2
.LC5:
	.ascii	"streamerExtension\000"
	.section	.text._Z28streamerExtensionRegisterExtv,"ax",%progbits
	.align	2
	.global	_Z28streamerExtensionRegisterExtv
	.hidden	_Z28streamerExtensionRegisterExtv
	.type	_Z28streamerExtensionRegisterExtv, %function
_Z28streamerExtensionRegisterExtv:
.LFB37:
	.loc 1 59 0
	.cfi_startproc
	@ args = 0, pretend = 0, frame = 32
	@ frame_needed = 0, uses_anonymous_args = 0
	str	lr, [sp, #-4]!
.LCFI5:
	.cfi_def_cfa_offset 4
	.cfi_offset 14, -4
	sub	sp, sp, #52
.LCFI6:
	.cfi_def_cfa_offset 56
	.loc 1 59 0
	ldr	r2, .L22
.LPIC20:
	add	r2, pc, r2
.LBB2:
	.loc 1 62 0
	ldr	r3, .L22+4
.LPIC16:
	add	r3, pc, r3
	str	r3, [sp, #32]
	.loc 1 63 0
	ldr	r3, .L22+8
.LPIC17:
	add	r3, pc, r3
	str	r3, [sp, #36]
	.loc 1 64 0
	ldr	r3, .L22+12
.LPIC18:
	add	r3, pc, r3
	str	r3, [sp, #40]
	.loc 1 65 0
	ldr	r3, .L22+16
.LPIC19:
	add	r3, pc, r3
	str	r3, [sp, #44]
	.loc 1 70 0
	add	r3, sp, #16
	mov	r1, #0
	str	r1, [r3, #0]
	add	r3, r3, #4
	mov	r1, #0
	str	r1, [r3, #0]
	add	r3, r3, #4
	mov	r1, #0
	str	r1, [r3, #0]
	add	r3, r3, #4
	mov	r1, #0
	str	r1, [r3, #0]
	add	r3, r3, #4
	.loc 1 75 0
	add	r1, sp, #32
	add	r3, sp, #16
	ldr	r0, .L22+20
	ldr	r0, [r2, r0]
	str	r0, [sp, #0]
	ldr	r0, .L22+24
	ldr	r2, [r2, r0]
	str	r2, [sp, #4]
	mov	r2, #0
	str	r2, [sp, #8]
	ldr	r2, .L22+28
.LPIC21:
	add	r2, pc, r2
	mov	r0, r2
	mov	r2, #16
	bl	s3eEdkRegister(PLT)
.LBE2:
	.loc 1 76 0
	add	sp, sp, #52
	ldmfd	sp!, {pc}
.L23:
	.align	2
.L22:
	.word	_GLOBAL_OFFSET_TABLE_-(.LPIC20+8)
	.word	_ZL24startStreamingAudio_wrapv-(.LPIC16+8)
	.word	_ZL23stopStreamingAudio_wrapv-(.LPIC17+8)
	.word	_ZL24pauseStreamingAudio_wrapv-(.LPIC18+8)
	.word	_ZL20initAudioStream_wrapPKci-(.LPIC19+8)
	.word	_Z21streamerExtensionInitv(GOT)
	.word	_Z26streamerExtensionTerminatev(GOT)
	.word	.LC5-(.LPIC21+8)
	.cfi_endproc
.LFE37:
	.size	_Z28streamerExtensionRegisterExtv, .-_Z28streamerExtensionRegisterExtv
	.section	.text.RegisterExt,"ax",%progbits
	.align	2
	.global	RegisterExt
	.type	RegisterExt, %function
RegisterExt:
.LFB38:
	.loc 1 95 0
	.cfi_startproc
	@ args = 0, pretend = 0, frame = 0
	@ frame_needed = 0, uses_anonymous_args = 0
	stmfd	sp!, {r3, lr}
.LCFI7:
	.cfi_def_cfa_offset 8
	.cfi_offset 3, -8
	.cfi_offset 14, -4
	.loc 1 96 0
	bl	_Z28streamerExtensionRegisterExtv(PLT)
	.loc 1 97 0
	ldmfd	sp!, {r3, pc}
	.cfi_endproc
.LFE38:
	.size	RegisterExt, .-RegisterExt
	.text
.Letext0:
	.file 2 "c:/marmalade/7.3/s3e/h/s3eTypes.h"
	.file 3 "c:/marmalade/7.3/s3e/edk/h/s3eEdk.h"
	.section	.note.GNU-stack,"",%progbits
