	.arch armv5te
	.fpu softvfp
	.eabi_attribute 20, 1
	.eabi_attribute 21, 1
	.eabi_attribute 23, 3
	.eabi_attribute 24, 1
	.eabi_attribute 25, 1
	.eabi_attribute 26, 2
	.eabi_attribute 30, 6
	.eabi_attribute 34, 0
	.eabi_attribute 18, 4
	.file	"streamerExtension_platform.cpp"
	.text
.Ltext0:
	.cfi_sections	.debug_frame
	.section	.text._ZN7_JNIEnv9FindClassEPKc,"axG",%progbits,_ZN7_JNIEnv9FindClassEPKc,comdat
	.align	2
	.weak	_ZN7_JNIEnv9FindClassEPKc
	.hidden	_ZN7_JNIEnv9FindClassEPKc
	.type	_ZN7_JNIEnv9FindClassEPKc, %function
_ZN7_JNIEnv9FindClassEPKc:
.LFB2:
	.file 1 "c:/marmalade/7.3/s3e/edk/h/jni.h"
	.loc 1 502 0
	.cfi_startproc
	@ args = 0, pretend = 0, frame = 8
	@ frame_needed = 0, uses_anonymous_args = 0
	str	lr, [sp, #-4]!
.LCFI0:
	.cfi_def_cfa_offset 4
	.cfi_offset 14, -4
	sub	sp, sp, #12
.LCFI1:
	.cfi_def_cfa_offset 16
	str	r0, [sp, #4]
	str	r1, [sp, #0]
	.loc 1 503 0
	ldr	r3, [sp, #4]
	ldr	r3, [r3, #0]
	ldr	r3, [r3, #24]
	ldr	r0, [sp, #4]
	ldr	r1, [sp, #0]
	blx	r3
	mov	r3, r0
	mov	r0, r3
	add	sp, sp, #12
	ldmfd	sp!, {pc}
	.cfi_endproc
.LFE2:
	.size	_ZN7_JNIEnv9FindClassEPKc, .-_ZN7_JNIEnv9FindClassEPKc
	.section	.text._ZN7_JNIEnv17ExceptionOccurredEv,"axG",%progbits,_ZN7_JNIEnv17ExceptionOccurredEv,comdat
	.align	2
	.weak	_ZN7_JNIEnv17ExceptionOccurredEv
	.hidden	_ZN7_JNIEnv17ExceptionOccurredEv
	.type	_ZN7_JNIEnv17ExceptionOccurredEv, %function
_ZN7_JNIEnv17ExceptionOccurredEv:
.LFB11:
	.loc 1 529 0
	.cfi_startproc
	@ args = 0, pretend = 0, frame = 8
	@ frame_needed = 0, uses_anonymous_args = 0
	str	lr, [sp, #-4]!
.LCFI2:
	.cfi_def_cfa_offset 4
	.cfi_offset 14, -4
	sub	sp, sp, #12
.LCFI3:
	.cfi_def_cfa_offset 16
	str	r0, [sp, #4]
	.loc 1 530 0
	ldr	r3, [sp, #4]
	ldr	r3, [r3, #0]
	ldr	r3, [r3, #60]
	ldr	r0, [sp, #4]
	blx	r3
	mov	r3, r0
	mov	r0, r3
	add	sp, sp, #12
	ldmfd	sp!, {pc}
	.cfi_endproc
.LFE11:
	.size	_ZN7_JNIEnv17ExceptionOccurredEv, .-_ZN7_JNIEnv17ExceptionOccurredEv
	.section	.text._ZN7_JNIEnv17ExceptionDescribeEv,"axG",%progbits,_ZN7_JNIEnv17ExceptionDescribeEv,comdat
	.align	2
	.weak	_ZN7_JNIEnv17ExceptionDescribeEv
	.hidden	_ZN7_JNIEnv17ExceptionDescribeEv
	.type	_ZN7_JNIEnv17ExceptionDescribeEv, %function
_ZN7_JNIEnv17ExceptionDescribeEv:
.LFB12:
	.loc 1 532 0
	.cfi_startproc
	@ args = 0, pretend = 0, frame = 8
	@ frame_needed = 0, uses_anonymous_args = 0
	str	lr, [sp, #-4]!
.LCFI4:
	.cfi_def_cfa_offset 4
	.cfi_offset 14, -4
	sub	sp, sp, #12
.LCFI5:
	.cfi_def_cfa_offset 16
	str	r0, [sp, #4]
	.loc 1 533 0
	ldr	r3, [sp, #4]
	ldr	r3, [r3, #0]
	ldr	r3, [r3, #64]
	ldr	r0, [sp, #4]
	blx	r3
	add	sp, sp, #12
	ldmfd	sp!, {pc}
	.cfi_endproc
.LFE12:
	.size	_ZN7_JNIEnv17ExceptionDescribeEv, .-_ZN7_JNIEnv17ExceptionDescribeEv
	.section	.text._ZN7_JNIEnv14ExceptionClearEv,"axG",%progbits,_ZN7_JNIEnv14ExceptionClearEv,comdat
	.align	2
	.weak	_ZN7_JNIEnv14ExceptionClearEv
	.hidden	_ZN7_JNIEnv14ExceptionClearEv
	.type	_ZN7_JNIEnv14ExceptionClearEv, %function
_ZN7_JNIEnv14ExceptionClearEv:
.LFB13:
	.loc 1 535 0
	.cfi_startproc
	@ args = 0, pretend = 0, frame = 8
	@ frame_needed = 0, uses_anonymous_args = 0
	str	lr, [sp, #-4]!
.LCFI6:
	.cfi_def_cfa_offset 4
	.cfi_offset 14, -4
	sub	sp, sp, #12
.LCFI7:
	.cfi_def_cfa_offset 16
	str	r0, [sp, #4]
	.loc 1 536 0
	ldr	r3, [sp, #4]
	ldr	r3, [r3, #0]
	ldr	r3, [r3, #68]
	ldr	r0, [sp, #4]
	blx	r3
	add	sp, sp, #12
	ldmfd	sp!, {pc}
	.cfi_endproc
.LFE13:
	.size	_ZN7_JNIEnv14ExceptionClearEv, .-_ZN7_JNIEnv14ExceptionClearEv
	.section	.text._ZN7_JNIEnv12NewGlobalRefEP8_jobject,"axG",%progbits,_ZN7_JNIEnv12NewGlobalRefEP8_jobject,comdat
	.align	2
	.weak	_ZN7_JNIEnv12NewGlobalRefEP8_jobject
	.hidden	_ZN7_JNIEnv12NewGlobalRefEP8_jobject
	.type	_ZN7_JNIEnv12NewGlobalRefEP8_jobject, %function
_ZN7_JNIEnv12NewGlobalRefEP8_jobject:
.LFB17:
	.loc 1 547 0
	.cfi_startproc
	@ args = 0, pretend = 0, frame = 8
	@ frame_needed = 0, uses_anonymous_args = 0
	str	lr, [sp, #-4]!
.LCFI8:
	.cfi_def_cfa_offset 4
	.cfi_offset 14, -4
	sub	sp, sp, #12
.LCFI9:
	.cfi_def_cfa_offset 16
	str	r0, [sp, #4]
	str	r1, [sp, #0]
	.loc 1 548 0
	ldr	r3, [sp, #4]
	ldr	r3, [r3, #0]
	ldr	r3, [r3, #84]
	ldr	r0, [sp, #4]
	ldr	r1, [sp, #0]
	blx	r3
	mov	r3, r0
	mov	r0, r3
	add	sp, sp, #12
	ldmfd	sp!, {pc}
	.cfi_endproc
.LFE17:
	.size	_ZN7_JNIEnv12NewGlobalRefEP8_jobject, .-_ZN7_JNIEnv12NewGlobalRefEP8_jobject
	.section	.text._ZN7_JNIEnv15DeleteGlobalRefEP8_jobject,"axG",%progbits,_ZN7_JNIEnv15DeleteGlobalRefEP8_jobject,comdat
	.align	2
	.weak	_ZN7_JNIEnv15DeleteGlobalRefEP8_jobject
	.hidden	_ZN7_JNIEnv15DeleteGlobalRefEP8_jobject
	.type	_ZN7_JNIEnv15DeleteGlobalRefEP8_jobject, %function
_ZN7_JNIEnv15DeleteGlobalRefEP8_jobject:
.LFB18:
	.loc 1 550 0
	.cfi_startproc
	@ args = 0, pretend = 0, frame = 8
	@ frame_needed = 0, uses_anonymous_args = 0
	str	lr, [sp, #-4]!
.LCFI10:
	.cfi_def_cfa_offset 4
	.cfi_offset 14, -4
	sub	sp, sp, #12
.LCFI11:
	.cfi_def_cfa_offset 16
	str	r0, [sp, #4]
	str	r1, [sp, #0]
	.loc 1 551 0
	ldr	r3, [sp, #4]
	ldr	r3, [r3, #0]
	ldr	r3, [r3, #88]
	ldr	r0, [sp, #4]
	ldr	r1, [sp, #0]
	blx	r3
	add	sp, sp, #12
	ldmfd	sp!, {pc}
	.cfi_endproc
.LFE18:
	.size	_ZN7_JNIEnv15DeleteGlobalRefEP8_jobject, .-_ZN7_JNIEnv15DeleteGlobalRefEP8_jobject
	.section	.text._ZN7_JNIEnv14DeleteLocalRefEP8_jobject,"axG",%progbits,_ZN7_JNIEnv14DeleteLocalRefEP8_jobject,comdat
	.align	2
	.weak	_ZN7_JNIEnv14DeleteLocalRefEP8_jobject
	.hidden	_ZN7_JNIEnv14DeleteLocalRefEP8_jobject
	.type	_ZN7_JNIEnv14DeleteLocalRefEP8_jobject, %function
_ZN7_JNIEnv14DeleteLocalRefEP8_jobject:
.LFB19:
	.loc 1 553 0
	.cfi_startproc
	@ args = 0, pretend = 0, frame = 8
	@ frame_needed = 0, uses_anonymous_args = 0
	str	lr, [sp, #-4]!
.LCFI12:
	.cfi_def_cfa_offset 4
	.cfi_offset 14, -4
	sub	sp, sp, #12
.LCFI13:
	.cfi_def_cfa_offset 16
	str	r0, [sp, #4]
	str	r1, [sp, #0]
	.loc 1 554 0
	ldr	r3, [sp, #4]
	ldr	r3, [r3, #0]
	ldr	r3, [r3, #92]
	ldr	r0, [sp, #4]
	ldr	r1, [sp, #0]
	blx	r3
	add	sp, sp, #12
	ldmfd	sp!, {pc}
	.cfi_endproc
.LFE19:
	.size	_ZN7_JNIEnv14DeleteLocalRefEP8_jobject, .-_ZN7_JNIEnv14DeleteLocalRefEP8_jobject
	.section	.text._ZN7_JNIEnv9NewObjectEP7_jclassP10_jmethodIDz,"axG",%progbits,_ZN7_JNIEnv9NewObjectEP7_jclassP10_jmethodIDz,comdat
	.align	2
	.weak	_ZN7_JNIEnv9NewObjectEP7_jclassP10_jmethodIDz
	.hidden	_ZN7_JNIEnv9NewObjectEP7_jclassP10_jmethodIDz
	.type	_ZN7_JNIEnv9NewObjectEP7_jclassP10_jmethodIDz, %function
_ZN7_JNIEnv9NewObjectEP7_jclassP10_jmethodIDz:
.LFB24:
	.loc 1 568 0
	.cfi_startproc
	@ args = 4, pretend = 8, frame = 16
	@ frame_needed = 0, uses_anonymous_args = 1
	stmfd	sp!, {r2, r3}
.LCFI14:
	.cfi_def_cfa_offset 8
	.cfi_offset 2, -8
	.cfi_offset 3, -4
	str	lr, [sp, #-4]!
.LCFI15:
	.cfi_def_cfa_offset 12
	.cfi_offset 14, -12
	sub	sp, sp, #20
.LCFI16:
	.cfi_def_cfa_offset 32
	str	r0, [sp, #4]
	str	r1, [sp, #0]
.LBB2:
	.loc 1 571 0
	add	r3, sp, #28
	str	r3, [sp, #8]
	.loc 1 572 0
	ldr	r3, [sp, #4]
	ldr	r3, [r3, #0]
	ldr	ip, [r3, #116]
	ldr	r0, [sp, #4]
	ldr	r1, [sp, #0]
	ldr	r2, [sp, #24]
	ldr	r3, [sp, #8]
	blx	ip
	str	r0, [sp, #12]
	.loc 1 574 0
	ldr	r3, [sp, #12]
.LBE2:
	.loc 1 575 0
	mov	r0, r3
	add	sp, sp, #20
	ldr	lr, [sp], #4
	add	sp, sp, #8
	bx	lr
	.cfi_endproc
.LFE24:
	.size	_ZN7_JNIEnv9NewObjectEP7_jclassP10_jmethodIDz, .-_ZN7_JNIEnv9NewObjectEP7_jclassP10_jmethodIDz
	.section	.text._ZN7_JNIEnv11GetMethodIDEP7_jclassPKcS3_,"axG",%progbits,_ZN7_JNIEnv11GetMethodIDEP7_jclassPKcS3_,comdat
	.align	2
	.weak	_ZN7_JNIEnv11GetMethodIDEP7_jclassPKcS3_
	.hidden	_ZN7_JNIEnv11GetMethodIDEP7_jclassPKcS3_
	.type	_ZN7_JNIEnv11GetMethodIDEP7_jclassPKcS3_, %function
_ZN7_JNIEnv11GetMethodIDEP7_jclassPKcS3_:
.LFB29:
	.loc 1 589 0
	.cfi_startproc
	@ args = 0, pretend = 0, frame = 16
	@ frame_needed = 0, uses_anonymous_args = 0
	str	lr, [sp, #-4]!
.LCFI17:
	.cfi_def_cfa_offset 4
	.cfi_offset 14, -4
	sub	sp, sp, #20
.LCFI18:
	.cfi_def_cfa_offset 24
	str	r0, [sp, #12]
	str	r1, [sp, #8]
	str	r2, [sp, #4]
	str	r3, [sp, #0]
	.loc 1 590 0
	ldr	r3, [sp, #12]
	ldr	r3, [r3, #0]
	ldr	ip, [r3, #132]
	ldr	r0, [sp, #12]
	ldr	r1, [sp, #8]
	ldr	r2, [sp, #4]
	ldr	r3, [sp, #0]
	blx	ip
	mov	r3, r0
	mov	r0, r3
	add	sp, sp, #20
	ldmfd	sp!, {pc}
	.cfi_endproc
.LFE29:
	.size	_ZN7_JNIEnv11GetMethodIDEP7_jclassPKcS3_, .-_ZN7_JNIEnv11GetMethodIDEP7_jclassPKcS3_
	.section	.text._ZN7_JNIEnv13CallIntMethodEP8_jobjectP10_jmethodIDz,"axG",%progbits,_ZN7_JNIEnv13CallIntMethodEP8_jobjectP10_jmethodIDz,comdat
	.align	2
	.weak	_ZN7_JNIEnv13CallIntMethodEP8_jobjectP10_jmethodIDz
	.hidden	_ZN7_JNIEnv13CallIntMethodEP8_jobjectP10_jmethodIDz
	.type	_ZN7_JNIEnv13CallIntMethodEP8_jobjectP10_jmethodIDz, %function
_ZN7_JNIEnv13CallIntMethodEP8_jobjectP10_jmethodIDz:
.LFB45:
	.loc 1 622 0
	.cfi_startproc
	@ args = 4, pretend = 8, frame = 16
	@ frame_needed = 0, uses_anonymous_args = 1
	stmfd	sp!, {r2, r3}
.LCFI19:
	.cfi_def_cfa_offset 8
	.cfi_offset 2, -8
	.cfi_offset 3, -4
	str	lr, [sp, #-4]!
.LCFI20:
	.cfi_def_cfa_offset 12
	.cfi_offset 14, -12
	sub	sp, sp, #20
.LCFI21:
	.cfi_def_cfa_offset 32
	str	r0, [sp, #4]
	str	r1, [sp, #0]
.LBB3:
	.loc 1 622 0
	add	r3, sp, #28
	str	r3, [sp, #8]
	ldr	r3, [sp, #4]
	ldr	r3, [r3, #0]
	ldr	ip, [r3, #200]
	ldr	r0, [sp, #4]
	ldr	r1, [sp, #0]
	ldr	r2, [sp, #24]
	ldr	r3, [sp, #8]
	blx	ip
	str	r0, [sp, #12]
	ldr	r3, [sp, #12]
.LBE3:
	mov	r0, r3
	add	sp, sp, #20
	ldr	lr, [sp], #4
	add	sp, sp, #8
	bx	lr
	.cfi_endproc
.LFE45:
	.size	_ZN7_JNIEnv13CallIntMethodEP8_jobjectP10_jmethodIDz, .-_ZN7_JNIEnv13CallIntMethodEP8_jobjectP10_jmethodIDz
	.section	.text._ZN7_JNIEnv12NewStringUTFEPKc,"axG",%progbits,_ZN7_JNIEnv12NewStringUTFEPKc,comdat
	.align	2
	.weak	_ZN7_JNIEnv12NewStringUTFEPKc
	.hidden	_ZN7_JNIEnv12NewStringUTFEPKc
	.type	_ZN7_JNIEnv12NewStringUTFEPKc, %function
_ZN7_JNIEnv12NewStringUTFEPKc:
.LFB163:
	.loc 1 839 0
	.cfi_startproc
	@ args = 0, pretend = 0, frame = 8
	@ frame_needed = 0, uses_anonymous_args = 0
	str	lr, [sp, #-4]!
.LCFI22:
	.cfi_def_cfa_offset 4
	.cfi_offset 14, -4
	sub	sp, sp, #12
.LCFI23:
	.cfi_def_cfa_offset 16
	str	r0, [sp, #4]
	str	r1, [sp, #0]
	.loc 1 840 0
	ldr	r3, [sp, #4]
	ldr	r3, [r3, #0]
	ldr	r3, [r3, #668]
	ldr	r0, [sp, #4]
	ldr	r1, [sp, #0]
	blx	r3
	mov	r3, r0
	mov	r0, r3
	add	sp, sp, #12
	ldmfd	sp!, {pc}
	.cfi_endproc
.LFE163:
	.size	_ZN7_JNIEnv12NewStringUTFEPKc, .-_ZN7_JNIEnv12NewStringUTFEPKc
	.section	.text._ZN7_JavaVM6GetEnvEPPvi,"axG",%progbits,_ZN7_JavaVM6GetEnvEPPvi,comdat
	.align	2
	.weak	_ZN7_JavaVM6GetEnvEPPvi
	.hidden	_ZN7_JavaVM6GetEnvEPPvi
	.type	_ZN7_JavaVM6GetEnvEPPvi, %function
_ZN7_JavaVM6GetEnvEPPvi:
.LFB232:
	.loc 1 1061 0
	.cfi_startproc
	@ args = 0, pretend = 0, frame = 16
	@ frame_needed = 0, uses_anonymous_args = 0
	str	lr, [sp, #-4]!
.LCFI24:
	.cfi_def_cfa_offset 4
	.cfi_offset 14, -4
	sub	sp, sp, #20
.LCFI25:
	.cfi_def_cfa_offset 24
	str	r0, [sp, #12]
	str	r1, [sp, #8]
	str	r2, [sp, #4]
	.loc 1 1062 0
	ldr	r3, [sp, #12]
	ldr	r3, [r3, #0]
	ldr	r3, [r3, #24]
	ldr	r0, [sp, #12]
	ldr	r1, [sp, #8]
	ldr	r2, [sp, #4]
	blx	r3
	mov	r3, r0
	mov	r0, r3
	add	sp, sp, #20
	ldmfd	sp!, {pc}
	.cfi_endproc
.LFE232:
	.size	_ZN7_JavaVM6GetEnvEPPvi, .-_ZN7_JavaVM6GetEnvEPPvi
	.section	.text._ZL15s3eEdkJNIGetEnvv,"ax",%progbits
	.align	2
	.type	_ZL15s3eEdkJNIGetEnvv, %function
_ZL15s3eEdkJNIGetEnvv:
.LFB234:
	.file 2 "c:/marmalade/7.3/s3e/edk/h/s3eEdk_android.h"
	.loc 2 46 0
	.cfi_startproc
	@ args = 0, pretend = 0, frame = 8
	@ frame_needed = 0, uses_anonymous_args = 0
	str	lr, [sp, #-4]!
.LCFI26:
	.cfi_def_cfa_offset 4
	.cfi_offset 14, -4
	sub	sp, sp, #12
.LCFI27:
	.cfi_def_cfa_offset 16
.LBB4:
	.loc 2 47 0
	bl	s3eEdkJNIGetVM(PLT)
	str	r0, [sp, #4]
	.loc 2 48 0
	mov	r3, #0
	str	r3, [sp, #0]
	.loc 2 49 0
	mov	r3, sp
	ldr	r0, [sp, #4]
	mov	r1, r3
	ldr	r2, .L23
	bl	_ZN7_JavaVM6GetEnvEPPvi(PLT)
	.loc 2 50 0
	ldr	r3, [sp, #0]
.LBE4:
	.loc 2 51 0
	mov	r0, r3
	add	sp, sp, #12
	ldmfd	sp!, {pc}
.L24:
	.align	2
.L23:
	.word	65538
	.cfi_endproc
.LFE234:
	.size	_ZL15s3eEdkJNIGetEnvv, .-_ZL15s3eEdkJNIGetEnvv
	.section	.text._ZL27s3eEdkAndroidFindClass_realPKc,"ax",%progbits
	.align	2
	.type	_ZL27s3eEdkAndroidFindClass_realPKc, %function
_ZL27s3eEdkAndroidFindClass_realPKc:
.LFB235:
	.loc 2 58 0
	.cfi_startproc
	@ args = 0, pretend = 0, frame = 24
	@ frame_needed = 0, uses_anonymous_args = 0
	str	lr, [sp, #-4]!
.LCFI28:
	.cfi_def_cfa_offset 4
	.cfi_offset 14, -4
	sub	sp, sp, #28
.LCFI29:
	.cfi_def_cfa_offset 32
	str	r0, [sp, #4]
.LBB5:
	.loc 2 59 0
	bl	_ZL15s3eEdkJNIGetEnvv(PLT)
	str	r0, [sp, #20]
	.loc 2 60 0
	ldr	r0, [sp, #20]
	ldr	r1, [sp, #4]
	bl	_ZN7_JNIEnv9FindClassEPKc(PLT)
	str	r0, [sp, #16]
.LBB6:
	.loc 2 61 0
	ldr	r3, [sp, #16]
	cmp	r3, #0
	bne	.L26
.LBB7:
	.loc 2 63 0
	ldr	r0, [sp, #20]
	bl	_ZN7_JNIEnv17ExceptionOccurredEv(PLT)
	str	r0, [sp, #12]
	.loc 2 64 0
	ldr	r3, [sp, #12]
	cmp	r3, #0
	beq	.L27
	.loc 2 67 0
	ldr	r0, [sp, #20]
	bl	_ZN7_JNIEnv17ExceptionDescribeEv(PLT)
	.loc 2 69 0
	ldr	r0, [sp, #20]
	bl	_ZN7_JNIEnv14ExceptionClearEv(PLT)
.L27:
	.loc 2 71 0
	mov	r3, #0
	b	.L28
.L26:
.LBE7:
.LBE6:
	.loc 2 76 0
	ldr	r0, [sp, #20]
	ldr	r1, [sp, #16]
	bl	_ZN7_JNIEnv12NewGlobalRefEP8_jobject(PLT)
	str	r0, [sp, #8]
	.loc 2 77 0
	ldr	r0, [sp, #20]
	ldr	r1, [sp, #16]
	bl	_ZN7_JNIEnv14DeleteLocalRefEP8_jobject(PLT)
	.loc 2 78 0
	ldr	r3, [sp, #8]
.L28:
.LBE5:
	.loc 2 79 0
	mov	r0, r3
	add	sp, sp, #28
	ldmfd	sp!, {pc}
	.cfi_endproc
.LFE235:
	.size	_ZL27s3eEdkAndroidFindClass_realPKc, .-_ZL27s3eEdkAndroidFindClass_realPKc
	.section	.text._ZL22s3eEdkAndroidFindClassPKc,"ax",%progbits
	.align	2
	.type	_ZL22s3eEdkAndroidFindClassPKc, %function
_ZL22s3eEdkAndroidFindClassPKc:
.LFB236:
	.loc 2 94 0
	.cfi_startproc
	@ args = 0, pretend = 0, frame = 8
	@ frame_needed = 0, uses_anonymous_args = 0
	str	lr, [sp, #-4]!
.LCFI30:
	.cfi_def_cfa_offset 4
	.cfi_offset 14, -4
	sub	sp, sp, #12
.LCFI31:
	.cfi_def_cfa_offset 16
	str	r0, [sp, #4]
	.loc 2 95 0
	ldr	r3, .L31
.LPIC0:
	add	r3, pc, r3
	mov	r0, r3
	mov	r1, #1
	ldr	r2, [sp, #4]
	bl	s3eEdkThreadRunOnOS(PLT)
	mov	r3, r0
	.loc 2 96 0
	mov	r0, r3
	add	sp, sp, #12
	ldmfd	sp!, {pc}
.L32:
	.align	2
.L31:
	.word	_ZL27s3eEdkAndroidFindClass_realPKc-(.LPIC0+8)
	.cfi_endproc
.LFE236:
	.size	_ZL22s3eEdkAndroidFindClassPKc, .-_ZL22s3eEdkAndroidFindClassPKc
	.local	_ZL5g_Obj
	.comm	_ZL5g_Obj,4,4
	.local	_ZL21g_startStreamingAudio
	.comm	_ZL21g_startStreamingAudio,4,4
	.local	_ZL20g_stopStreamingAudio
	.comm	_ZL20g_stopStreamingAudio,4,4
	.local	_ZL21g_pauseStreamingAudio
	.comm	_ZL21g_pauseStreamingAudio,4,4
	.local	_ZL17g_initAudioStream
	.comm	_ZL17g_initAudioStream,4,4
	.section	.rodata
	.align	2
.LC0:
	.ascii	"streamerExtension\000"
	.align	2
.LC1:
	.ascii	"<init>\000"
	.align	2
.LC2:
	.ascii	"()V\000"
	.align	2
.LC3:
	.ascii	"startStreamingAudio\000"
	.align	2
.LC4:
	.ascii	"()I\000"
	.align	2
.LC5:
	.ascii	"stopStreamingAudio\000"
	.align	2
.LC6:
	.ascii	"pauseStreamingAudio\000"
	.align	2
.LC7:
	.ascii	"initAudioStream\000"
	.align	2
.LC8:
	.ascii	"(Ljava/lang/String;I)I\000"
	.align	2
.LC9:
	.ascii	"STREAMEREXTENSION\000"
	.align	2
.LC10:
	.ascii	"STREAMEREXTENSION init success\000"
	.align	2
.LC11:
	.ascii	"One or more java methods could not be found\000"
	.section	.text._Z30streamerExtensionInit_platformv,"ax",%progbits
	.align	2
	.global	_Z30streamerExtensionInit_platformv
	.hidden	_Z30streamerExtensionInit_platformv
	.type	_Z30streamerExtensionInit_platformv, %function
_Z30streamerExtensionInit_platformv:
.LFB270:
	.file 3 "C:\\Users\\David\\git\\RadioApp\\UCCSRadio\\streamerExtension\\source\\android\\streamerExtension_platform.cpp"
	.loc 3 23 0
	.cfi_startproc
	@ args = 0, pretend = 0, frame = 24
	@ frame_needed = 0, uses_anonymous_args = 0
	str	lr, [sp, #-4]!
.LCFI32:
	.cfi_def_cfa_offset 4
	.cfi_offset 14, -4
	sub	sp, sp, #28
.LCFI33:
	.cfi_def_cfa_offset 32
.LBB8:
	.loc 3 25 0
	bl	_ZL15s3eEdkJNIGetEnvv(PLT)
	str	r0, [sp, #20]
	.loc 3 26 0
	mov	r3, #0
	str	r3, [sp, #16]
	.loc 3 27 0
	mov	r3, #0
	str	r3, [sp, #12]
	.loc 3 30 0
	ldr	r3, .L52
.LPIC1:
	add	r3, pc, r3
	mov	r0, r3
	bl	_ZL22s3eEdkAndroidFindClassPKc(PLT)
	str	r0, [sp, #8]
	.loc 3 31 0
	ldr	r3, [sp, #8]
	cmp	r3, #0
	beq	.L45
	.loc 3 35 0
	ldr	r0, [sp, #20]
	ldr	r1, [sp, #8]
	ldr	r3, .L52+4
.LPIC2:
	add	r3, pc, r3
	mov	r2, r3
	ldr	r3, .L52+8
.LPIC3:
	add	r3, pc, r3
	bl	_ZN7_JNIEnv11GetMethodIDEP7_jclassPKcS3_(PLT)
	str	r0, [sp, #12]
	.loc 3 36 0
	ldr	r3, [sp, #12]
	cmp	r3, #0
	beq	.L46
	.loc 3 40 0
	ldr	r0, [sp, #20]
	ldr	r1, [sp, #8]
	ldr	r2, [sp, #12]
	bl	_ZN7_JNIEnv9NewObjectEP7_jclassP10_jmethodIDz(PLT)
	str	r0, [sp, #16]
	.loc 3 41 0
	ldr	r3, [sp, #16]
	cmp	r3, #0
	beq	.L47
	.loc 3 45 0
	ldr	r0, [sp, #20]
	ldr	r1, [sp, #8]
	ldr	r3, .L52+12
.LPIC4:
	add	r3, pc, r3
	mov	r2, r3
	ldr	r3, .L52+16
.LPIC5:
	add	r3, pc, r3
	bl	_ZN7_JNIEnv11GetMethodIDEP7_jclassPKcS3_(PLT)
	mov	r2, r0
	ldr	r3, .L52+20
.LPIC6:
	add	r3, pc, r3
	str	r2, [r3, #0]
	.loc 3 46 0
	ldr	r3, .L52+24
.LPIC7:
	add	r3, pc, r3
	ldr	r3, [r3, #0]
	cmp	r3, #0
	beq	.L48
	.loc 3 49 0
	ldr	r0, [sp, #20]
	ldr	r1, [sp, #8]
	ldr	r3, .L52+28
.LPIC8:
	add	r3, pc, r3
	mov	r2, r3
	ldr	r3, .L52+32
.LPIC9:
	add	r3, pc, r3
	bl	_ZN7_JNIEnv11GetMethodIDEP7_jclassPKcS3_(PLT)
	mov	r2, r0
	ldr	r3, .L52+36
.LPIC10:
	add	r3, pc, r3
	str	r2, [r3, #0]
	.loc 3 50 0
	ldr	r3, .L52+40
.LPIC11:
	add	r3, pc, r3
	ldr	r3, [r3, #0]
	cmp	r3, #0
	beq	.L49
	.loc 3 53 0
	ldr	r0, [sp, #20]
	ldr	r1, [sp, #8]
	ldr	r3, .L52+44
.LPIC12:
	add	r3, pc, r3
	mov	r2, r3
	ldr	r3, .L52+48
.LPIC13:
	add	r3, pc, r3
	bl	_ZN7_JNIEnv11GetMethodIDEP7_jclassPKcS3_(PLT)
	mov	r2, r0
	ldr	r3, .L52+52
.LPIC14:
	add	r3, pc, r3
	str	r2, [r3, #0]
	.loc 3 54 0
	ldr	r3, .L52+56
.LPIC15:
	add	r3, pc, r3
	ldr	r3, [r3, #0]
	cmp	r3, #0
	beq	.L50
	.loc 3 57 0
	ldr	r0, [sp, #20]
	ldr	r1, [sp, #8]
	ldr	r3, .L52+60
.LPIC16:
	add	r3, pc, r3
	mov	r2, r3
	ldr	r3, .L52+64
.LPIC17:
	add	r3, pc, r3
	bl	_ZN7_JNIEnv11GetMethodIDEP7_jclassPKcS3_(PLT)
	mov	r2, r0
	ldr	r3, .L52+68
.LPIC18:
	add	r3, pc, r3
	str	r2, [r3, #0]
	.loc 3 58 0
	ldr	r3, .L52+72
.LPIC19:
	add	r3, pc, r3
	ldr	r3, [r3, #0]
	cmp	r3, #0
	beq	.L51
	.loc 3 63 0
	ldr	r3, .L52+76
.LPIC20:
	add	r3, pc, r3
	mov	r0, r3
	mov	r1, #1
	bl	IwDebugTraceIsChannelOn(PLT)
	mov	r3, r0
	cmp	r3, #0
	moveq	r3, #0
	movne	r3, #1
	and	r3, r3, #255
	cmp	r3, #0
	beq	.L42
	.loc 3 63 0 is_stmt 0 discriminator 1
	ldr	r3, .L52+80
.LPIC21:
	add	r3, pc, r3
	mov	r0, r3
	bl	IwDebugTraceSetTraceChannel(PLT)
	ldr	r3, .L52+84
.LPIC22:
	add	r3, pc, r3
	mov	r0, r3
	bl	IwDebugTraceLinePrintf(PLT)
.L42:
	.loc 3 64 0 is_stmt 1
	ldr	r0, [sp, #20]
	ldr	r1, [sp, #16]
	bl	_ZN7_JNIEnv12NewGlobalRefEP8_jobject(PLT)
	mov	r2, r0
	ldr	r3, .L52+88
.LPIC23:
	add	r3, pc, r3
	str	r2, [r3, #0]
	.loc 3 65 0
	ldr	r0, [sp, #20]
	ldr	r1, [sp, #16]
	bl	_ZN7_JNIEnv14DeleteLocalRefEP8_jobject(PLT)
	.loc 3 66 0
	ldr	r0, [sp, #20]
	ldr	r1, [sp, #8]
	bl	_ZN7_JNIEnv15DeleteGlobalRefEP8_jobject(PLT)
	.loc 3 69 0
	mov	r3, #0
	b	.L43
.L45:
	.loc 3 32 0
	mov	r0, r0	@ nop
	b	.L35
.L46:
	.loc 3 37 0
	mov	r0, r0	@ nop
	b	.L35
.L47:
	.loc 3 42 0
	mov	r0, r0	@ nop
	b	.L35
.L48:
	.loc 3 47 0
	mov	r0, r0	@ nop
	b	.L35
.L49:
	.loc 3 51 0
	mov	r0, r0	@ nop
	b	.L35
.L50:
	.loc 3 55 0
	mov	r0, r0	@ nop
	b	.L35
.L51:
	.loc 3 59 0
	mov	r0, r0	@ nop
.L35:
	.loc 3 72 0
	ldr	r0, [sp, #20]
	bl	_ZN7_JNIEnv17ExceptionOccurredEv(PLT)
	str	r0, [sp, #4]
	.loc 3 73 0
	ldr	r3, [sp, #4]
	cmp	r3, #0
	beq	.L44
	.loc 3 75 0
	ldr	r0, [sp, #20]
	bl	_ZN7_JNIEnv17ExceptionDescribeEv(PLT)
	.loc 3 76 0
	ldr	r0, [sp, #20]
	bl	_ZN7_JNIEnv14ExceptionClearEv(PLT)
	.loc 3 77 0
	ldr	r3, .L52+92
.LPIC24:
	add	r3, pc, r3
	mov	r0, r3
	mov	r1, #1
	bl	IwDebugTraceIsChannelOn(PLT)
	mov	r3, r0
	cmp	r3, #0
	moveq	r3, #0
	movne	r3, #1
	and	r3, r3, #255
	cmp	r3, #0
	beq	.L44
	.loc 3 77 0 is_stmt 0 discriminator 1
	ldr	r3, .L52+96
.LPIC25:
	add	r3, pc, r3
	mov	r0, r3
	bl	IwDebugTraceSetTraceChannel(PLT)
	ldr	r3, .L52+100
.LPIC26:
	add	r3, pc, r3
	mov	r0, r3
	bl	IwDebugTraceLinePrintf(PLT)
.L44:
	.loc 3 79 0 is_stmt 1
	mov	r3, #1
.L43:
.LBE8:
	.loc 3 81 0
	mov	r0, r3
	add	sp, sp, #28
	ldmfd	sp!, {pc}
.L53:
	.align	2
.L52:
	.word	.LC0-(.LPIC1+8)
	.word	.LC1-(.LPIC2+8)
	.word	.LC2-(.LPIC3+8)
	.word	.LC3-(.LPIC4+8)
	.word	.LC4-(.LPIC5+8)
	.word	_ZL21g_startStreamingAudio-(.LPIC6+8)
	.word	_ZL21g_startStreamingAudio-(.LPIC7+8)
	.word	.LC5-(.LPIC8+8)
	.word	.LC4-(.LPIC9+8)
	.word	_ZL20g_stopStreamingAudio-(.LPIC10+8)
	.word	_ZL20g_stopStreamingAudio-(.LPIC11+8)
	.word	.LC6-(.LPIC12+8)
	.word	.LC4-(.LPIC13+8)
	.word	_ZL21g_pauseStreamingAudio-(.LPIC14+8)
	.word	_ZL21g_pauseStreamingAudio-(.LPIC15+8)
	.word	.LC7-(.LPIC16+8)
	.word	.LC8-(.LPIC17+8)
	.word	_ZL17g_initAudioStream-(.LPIC18+8)
	.word	_ZL17g_initAudioStream-(.LPIC19+8)
	.word	.LC9-(.LPIC20+8)
	.word	.LC9-(.LPIC21+8)
	.word	.LC10-(.LPIC22+8)
	.word	_ZL5g_Obj-(.LPIC23+8)
	.word	.LC0-(.LPIC24+8)
	.word	.LC0-(.LPIC25+8)
	.word	.LC11-(.LPIC26+8)
	.cfi_endproc
.LFE270:
	.size	_Z30streamerExtensionInit_platformv, .-_Z30streamerExtensionInit_platformv
	.section	.text._Z35streamerExtensionTerminate_platformv,"ax",%progbits
	.align	2
	.global	_Z35streamerExtensionTerminate_platformv
	.hidden	_Z35streamerExtensionTerminate_platformv
	.type	_Z35streamerExtensionTerminate_platformv, %function
_Z35streamerExtensionTerminate_platformv:
.LFB271:
	.loc 3 84 0
	.cfi_startproc
	@ args = 0, pretend = 0, frame = 0
	@ frame_needed = 0, uses_anonymous_args = 0
	@ link register save eliminated.
	.loc 3 86 0
	bx	lr
	.cfi_endproc
.LFE271:
	.size	_Z35streamerExtensionTerminate_platformv, .-_Z35streamerExtensionTerminate_platformv
	.section	.text._Z28startStreamingAudio_platformv,"ax",%progbits
	.align	2
	.global	_Z28startStreamingAudio_platformv
	.hidden	_Z28startStreamingAudio_platformv
	.type	_Z28startStreamingAudio_platformv, %function
_Z28startStreamingAudio_platformv:
.LFB272:
	.loc 3 89 0
	.cfi_startproc
	@ args = 0, pretend = 0, frame = 8
	@ frame_needed = 0, uses_anonymous_args = 0
	str	lr, [sp, #-4]!
.LCFI34:
	.cfi_def_cfa_offset 4
	.cfi_offset 14, -4
	sub	sp, sp, #12
.LCFI35:
	.cfi_def_cfa_offset 16
.LBB9:
	.loc 3 90 0
	bl	_ZL15s3eEdkJNIGetEnvv(PLT)
	str	r0, [sp, #4]
	.loc 3 91 0
	ldr	r3, .L57
.LPIC27:
	add	r3, pc, r3
	ldr	r2, [r3, #0]
	ldr	r3, .L57+4
.LPIC28:
	add	r3, pc, r3
	ldr	r3, [r3, #0]
	ldr	r0, [sp, #4]
	mov	r1, r2
	mov	r2, r3
	bl	_ZN7_JNIEnv13CallIntMethodEP8_jobjectP10_jmethodIDz(PLT)
	mov	r3, r0
.LBE9:
	.loc 3 92 0
	mov	r0, r3
	add	sp, sp, #12
	ldmfd	sp!, {pc}
.L58:
	.align	2
.L57:
	.word	_ZL5g_Obj-(.LPIC27+8)
	.word	_ZL21g_startStreamingAudio-(.LPIC28+8)
	.cfi_endproc
.LFE272:
	.size	_Z28startStreamingAudio_platformv, .-_Z28startStreamingAudio_platformv
	.section	.text._Z27stopStreamingAudio_platformv,"ax",%progbits
	.align	2
	.global	_Z27stopStreamingAudio_platformv
	.hidden	_Z27stopStreamingAudio_platformv
	.type	_Z27stopStreamingAudio_platformv, %function
_Z27stopStreamingAudio_platformv:
.LFB273:
	.loc 3 95 0
	.cfi_startproc
	@ args = 0, pretend = 0, frame = 8
	@ frame_needed = 0, uses_anonymous_args = 0
	str	lr, [sp, #-4]!
.LCFI36:
	.cfi_def_cfa_offset 4
	.cfi_offset 14, -4
	sub	sp, sp, #12
.LCFI37:
	.cfi_def_cfa_offset 16
.LBB10:
	.loc 3 96 0
	bl	_ZL15s3eEdkJNIGetEnvv(PLT)
	str	r0, [sp, #4]
	.loc 3 97 0
	ldr	r3, .L61
.LPIC29:
	add	r3, pc, r3
	ldr	r2, [r3, #0]
	ldr	r3, .L61+4
.LPIC30:
	add	r3, pc, r3
	ldr	r3, [r3, #0]
	ldr	r0, [sp, #4]
	mov	r1, r2
	mov	r2, r3
	bl	_ZN7_JNIEnv13CallIntMethodEP8_jobjectP10_jmethodIDz(PLT)
	mov	r3, r0
.LBE10:
	.loc 3 98 0
	mov	r0, r3
	add	sp, sp, #12
	ldmfd	sp!, {pc}
.L62:
	.align	2
.L61:
	.word	_ZL5g_Obj-(.LPIC29+8)
	.word	_ZL20g_stopStreamingAudio-(.LPIC30+8)
	.cfi_endproc
.LFE273:
	.size	_Z27stopStreamingAudio_platformv, .-_Z27stopStreamingAudio_platformv
	.section	.text._Z28pauseStreamingAudio_platformv,"ax",%progbits
	.align	2
	.global	_Z28pauseStreamingAudio_platformv
	.hidden	_Z28pauseStreamingAudio_platformv
	.type	_Z28pauseStreamingAudio_platformv, %function
_Z28pauseStreamingAudio_platformv:
.LFB274:
	.loc 3 101 0
	.cfi_startproc
	@ args = 0, pretend = 0, frame = 8
	@ frame_needed = 0, uses_anonymous_args = 0
	str	lr, [sp, #-4]!
.LCFI38:
	.cfi_def_cfa_offset 4
	.cfi_offset 14, -4
	sub	sp, sp, #12
.LCFI39:
	.cfi_def_cfa_offset 16
.LBB11:
	.loc 3 102 0
	bl	_ZL15s3eEdkJNIGetEnvv(PLT)
	str	r0, [sp, #4]
	.loc 3 103 0
	ldr	r3, .L65
.LPIC31:
	add	r3, pc, r3
	ldr	r2, [r3, #0]
	ldr	r3, .L65+4
.LPIC32:
	add	r3, pc, r3
	ldr	r3, [r3, #0]
	ldr	r0, [sp, #4]
	mov	r1, r2
	mov	r2, r3
	bl	_ZN7_JNIEnv13CallIntMethodEP8_jobjectP10_jmethodIDz(PLT)
	mov	r3, r0
.LBE11:
	.loc 3 104 0
	mov	r0, r3
	add	sp, sp, #12
	ldmfd	sp!, {pc}
.L66:
	.align	2
.L65:
	.word	_ZL5g_Obj-(.LPIC31+8)
	.word	_ZL21g_pauseStreamingAudio-(.LPIC32+8)
	.cfi_endproc
.LFE274:
	.size	_Z28pauseStreamingAudio_platformv, .-_Z28pauseStreamingAudio_platformv
	.section	.text._Z24initAudioStream_platformPKci,"ax",%progbits
	.align	2
	.global	_Z24initAudioStream_platformPKci
	.hidden	_Z24initAudioStream_platformPKci
	.type	_Z24initAudioStream_platformPKci, %function
_Z24initAudioStream_platformPKci:
.LFB275:
	.loc 3 107 0
	.cfi_startproc
	@ args = 0, pretend = 0, frame = 16
	@ frame_needed = 0, uses_anonymous_args = 0
	str	lr, [sp, #-4]!
.LCFI40:
	.cfi_def_cfa_offset 4
	.cfi_offset 14, -4
	sub	sp, sp, #28
.LCFI41:
	.cfi_def_cfa_offset 32
	str	r0, [sp, #12]
	str	r1, [sp, #8]
.LBB12:
	.loc 3 108 0
	bl	_ZL15s3eEdkJNIGetEnvv(PLT)
	str	r0, [sp, #20]
	.loc 3 109 0
	ldr	r0, [sp, #20]
	ldr	r1, [sp, #12]
	bl	_ZN7_JNIEnv12NewStringUTFEPKc(PLT)
	str	r0, [sp, #16]
	.loc 3 110 0
	ldr	r3, .L69
.LPIC33:
	add	r3, pc, r3
	ldr	r2, [r3, #0]
	ldr	r3, .L69+4
.LPIC34:
	add	r3, pc, r3
	ldr	r3, [r3, #0]
	ldr	r1, [sp, #8]
	str	r1, [sp, #0]
	ldr	r0, [sp, #20]
	mov	r1, r2
	mov	r2, r3
	ldr	r3, [sp, #16]
	bl	_ZN7_JNIEnv13CallIntMethodEP8_jobjectP10_jmethodIDz(PLT)
	mov	r3, r0
.LBE12:
	.loc 3 111 0
	mov	r0, r3
	add	sp, sp, #28
	ldmfd	sp!, {pc}
.L70:
	.align	2
.L69:
	.word	_ZL5g_Obj-(.LPIC33+8)
	.word	_ZL17g_initAudioStream-(.LPIC34+8)
	.cfi_endproc
.LFE275:
	.size	_Z24initAudioStream_platformPKci, .-_Z24initAudioStream_platformPKci
	.text
.Letext0:
	.file 4 "c:/marmalade/7.3/s3e/h/s3eTypes.h"
	.file 5 "c:\\program files (x86)\\android\\android-ndk-r8e\\toolchains\\arm-linux-androideabi-4.7\\prebuilt\\windows-x86_64\\bin\\../lib/gcc/arm-linux-androideabi/4.7/include/stdarg.h"
	.file 6 "c:/marmalade/7.3/s3e/edk/h/s3eEdk.h"
	.file 7 "<built-in>"
	.section	.note.GNU-stack,"",%progbits
